
AVRASM ver. 2.1.30  D:\Dropbox\TUGAS AKHIR\PROGRAM DAN HARDWARE\CODE MIKROKONTROLER\List\weather_station.asm Fri Jun 16 09:44:05 2017

D:\Dropbox\TUGAS AKHIR\PROGRAM DAN HARDWARE\CODE MIKROKONTROLER\List\weather_station.asm(1070): warning: Register r4 already defined by the .DEF directive
D:\Dropbox\TUGAS AKHIR\PROGRAM DAN HARDWARE\CODE MIKROKONTROLER\List\weather_station.asm(1071): warning: Register r6 already defined by the .DEF directive
D:\Dropbox\TUGAS AKHIR\PROGRAM DAN HARDWARE\CODE MIKROKONTROLER\List\weather_station.asm(1072): warning: Register r8 already defined by the .DEF directive
D:\Dropbox\TUGAS AKHIR\PROGRAM DAN HARDWARE\CODE MIKROKONTROLER\List\weather_station.asm(1073): warning: Register r10 already defined by the .DEF directive
D:\Dropbox\TUGAS AKHIR\PROGRAM DAN HARDWARE\CODE MIKROKONTROLER\List\weather_station.asm(1074): warning: Register r12 already defined by the .DEF directive
                 
                 
                 ;CodeVisionAVR C Compiler V2.05.3 Standard
                 ;(C) Copyright 1998-2011 Pavel Haiduc, HP InfoTech s.r.l.
                 ;http://www.hpinfotech.com
                 
                 ;Chip type                : ATmega8
                 ;Program type             : Application
                 ;Clock frequency          : 1.843200 MHz
                 ;Memory model             : Small
                 ;Optimize for             : Size
                 ;(s)printf features       : long, width, precision
                 ;(s)scanf features        : int, width
                 ;External RAM size        : 0
                 ;Data Stack size          : 256 byte(s)
                 ;Heap size                : 0 byte(s)
                 ;Promote 'char' to 'int'  : Yes
                 ;'char' is unsigned       : Yes
                 ;8 bit enums              : Yes
                 ;Global 'const' stored in FLASH     : No
                 ;Enhanced function parameter passing: Yes
                 ;Enhanced core instructions         : On
                 ;Smart register allocation          : On
                 ;Automatic register allocation      : On
                 
                 	#pragma AVRPART ADMIN PART_NAME ATmega8
                 	#pragma AVRPART MEMORY PROG_FLASH 8192
                 	#pragma AVRPART MEMORY EEPROM 512
                 	#pragma AVRPART MEMORY INT_SRAM SIZE 1119
                 	#pragma AVRPART MEMORY INT_SRAM START_ADDR 0x60
                 
                 	.LISTMAC
                 	.EQU UDRE=0x5
                 	.EQU RXC=0x7
                 	.EQU USR=0xB
                 	.EQU UDR=0xC
                 	.EQU SPSR=0xE
                 	.EQU SPDR=0xF
                 	.EQU EERE=0x0
                 	.EQU EEWE=0x1
                 	.EQU EEMWE=0x2
                 	.EQU EECR=0x1C
                 	.EQU EEDR=0x1D
                 	.EQU EEARL=0x1E
                 	.EQU EEARH=0x1F
                 	.EQU WDTCR=0x21
                 	.EQU MCUCR=0x35
                 	.EQU GICR=0x3B
                 	.EQU SPL=0x3D
                 	.EQU SPH=0x3E
                 	.EQU SREG=0x3F
                 
                 	.DEF R0X0=R0
                 	.DEF R0X1=R1
                 	.DEF R0X2=R2
                 	.DEF R0X3=R3
                 	.DEF R0X4=R4
                 	.DEF R0X5=R5
                 	.DEF R0X6=R6
                 	.DEF R0X7=R7
                 	.DEF R0X8=R8
                 	.DEF R0X9=R9
                 	.DEF R0XA=R10
                 	.DEF R0XB=R11
                 	.DEF R0XC=R12
                 	.DEF R0XD=R13
                 	.DEF R0XE=R14
                 	.DEF R0XF=R15
                 	.DEF R0X10=R16
                 	.DEF R0X11=R17
                 	.DEF R0X12=R18
                 	.DEF R0X13=R19
                 	.DEF R0X14=R20
                 	.DEF R0X15=R21
                 	.DEF R0X16=R22
                 	.DEF R0X17=R23
                 	.DEF R0X18=R24
                 	.DEF R0X19=R25
                 	.DEF R0X1A=R26
                 	.DEF R0X1B=R27
                 	.DEF R0X1C=R28
                 	.DEF R0X1D=R29
                 	.DEF R0X1E=R30
                 	.DEF R0X1F=R31
                 
                 	.EQU __SRAM_START=0x0060
                 	.EQU __SRAM_END=0x045F
                 	.EQU __DSTACK_SIZE=0x0100
                 	.EQU __HEAP_SIZE=0x0000
                 	.EQU __CLEAR_SRAM_SIZE=__SRAM_END-__SRAM_START+1
                 
                 	.MACRO __CPD1N
                 	CPI  R30,LOW(@0)
                 	LDI  R26,HIGH(@0)
                 	CPC  R31,R26
                 	LDI  R26,BYTE3(@0)
                 	CPC  R22,R26
                 	LDI  R26,BYTE4(@0)
                 	CPC  R23,R26
                 	.ENDM
                 
                 	.MACRO __CPD2N
                 	CPI  R26,LOW(@0)
                 	LDI  R30,HIGH(@0)
                 	CPC  R27,R30
                 	LDI  R30,BYTE3(@0)
                 	CPC  R24,R30
                 	LDI  R30,BYTE4(@0)
                 	CPC  R25,R30
                 	.ENDM
                 
                 	.MACRO __CPWRR
                 	CP   R@0,R@2
                 	CPC  R@1,R@3
                 	.ENDM
                 
                 	.MACRO __CPWRN
                 	CPI  R@0,LOW(@2)
                 	LDI  R30,HIGH(@2)
                 	CPC  R@1,R30
                 	.ENDM
                 
                 	.MACRO __ADDB1MN
                 	SUBI R30,LOW(-@0-(@1))
                 	.ENDM
                 
                 	.MACRO __ADDB2MN
                 	SUBI R26,LOW(-@0-(@1))
                 	.ENDM
                 
                 	.MACRO __ADDW1MN
                 	SUBI R30,LOW(-@0-(@1))
                 	SBCI R31,HIGH(-@0-(@1))
                 	.ENDM
                 
                 	.MACRO __ADDW2MN
                 	SUBI R26,LOW(-@0-(@1))
                 	SBCI R27,HIGH(-@0-(@1))
                 	.ENDM
                 
                 	.MACRO __ADDW1FN
                 	SUBI R30,LOW(-2*@0-(@1))
                 	SBCI R31,HIGH(-2*@0-(@1))
                 	.ENDM
                 
                 	.MACRO __ADDD1FN
                 	SUBI R30,LOW(-2*@0-(@1))
                 	SBCI R31,HIGH(-2*@0-(@1))
                 	SBCI R22,BYTE3(-2*@0-(@1))
                 	.ENDM
                 
                 	.MACRO __ADDD1N
                 	SUBI R30,LOW(-@0)
                 	SBCI R31,HIGH(-@0)
                 	SBCI R22,BYTE3(-@0)
                 	SBCI R23,BYTE4(-@0)
                 	.ENDM
                 
                 	.MACRO __ADDD2N
                 	SUBI R26,LOW(-@0)
                 	SBCI R27,HIGH(-@0)
                 	SBCI R24,BYTE3(-@0)
                 	SBCI R25,BYTE4(-@0)
                 	.ENDM
                 
                 	.MACRO __SUBD1N
                 	SUBI R30,LOW(@0)
                 	SBCI R31,HIGH(@0)
                 	SBCI R22,BYTE3(@0)
                 	SBCI R23,BYTE4(@0)
                 	.ENDM
                 
                 	.MACRO __SUBD2N
                 	SUBI R26,LOW(@0)
                 	SBCI R27,HIGH(@0)
                 	SBCI R24,BYTE3(@0)
                 	SBCI R25,BYTE4(@0)
                 	.ENDM
                 
                 	.MACRO __ANDBMNN
                 	LDS  R30,@0+(@1)
                 	ANDI R30,LOW(@2)
                 	STS  @0+(@1),R30
                 	.ENDM
                 
                 	.MACRO __ANDWMNN
                 	LDS  R30,@0+(@1)
                 	ANDI R30,LOW(@2)
                 	STS  @0+(@1),R30
                 	LDS  R30,@0+(@1)+1
                 	ANDI R30,HIGH(@2)
                 	STS  @0+(@1)+1,R30
                 	.ENDM
                 
                 	.MACRO __ANDD1N
                 	ANDI R30,LOW(@0)
                 	ANDI R31,HIGH(@0)
                 	ANDI R22,BYTE3(@0)
                 	ANDI R23,BYTE4(@0)
                 	.ENDM
                 
                 	.MACRO __ANDD2N
                 	ANDI R26,LOW(@0)
                 	ANDI R27,HIGH(@0)
                 	ANDI R24,BYTE3(@0)
                 	ANDI R25,BYTE4(@0)
                 	.ENDM
                 
                 	.MACRO __ORBMNN
                 	LDS  R30,@0+(@1)
                 	ORI  R30,LOW(@2)
                 	STS  @0+(@1),R30
                 	.ENDM
                 
                 	.MACRO __ORWMNN
                 	LDS  R30,@0+(@1)
                 	ORI  R30,LOW(@2)
                 	STS  @0+(@1),R30
                 	LDS  R30,@0+(@1)+1
                 	ORI  R30,HIGH(@2)
                 	STS  @0+(@1)+1,R30
                 	.ENDM
                 
                 	.MACRO __ORD1N
                 	ORI  R30,LOW(@0)
                 	ORI  R31,HIGH(@0)
                 	ORI  R22,BYTE3(@0)
                 	ORI  R23,BYTE4(@0)
                 	.ENDM
                 
                 	.MACRO __ORD2N
                 	ORI  R26,LOW(@0)
                 	ORI  R27,HIGH(@0)
                 	ORI  R24,BYTE3(@0)
                 	ORI  R25,BYTE4(@0)
                 	.ENDM
                 
                 	.MACRO __DELAY_USB
                 	LDI  R24,LOW(@0)
                 __DELAY_USB_LOOP:
                 	DEC  R24
                 	BRNE __DELAY_USB_LOOP
                 	.ENDM
                 
                 	.MACRO __DELAY_USW
                 	LDI  R24,LOW(@0)
                 	LDI  R25,HIGH(@0)
                 __DELAY_USW_LOOP:
                 	SBIW R24,1
                 	BRNE __DELAY_USW_LOOP
                 	.ENDM
                 
                 	.MACRO __GETD1S
                 	LDD  R30,Y+@0
                 	LDD  R31,Y+@0+1
                 	LDD  R22,Y+@0+2
                 	LDD  R23,Y+@0+3
                 	.ENDM
                 
                 	.MACRO __GETD2S
                 	LDD  R26,Y+@0
                 	LDD  R27,Y+@0+1
                 	LDD  R24,Y+@0+2
                 	LDD  R25,Y+@0+3
                 	.ENDM
                 
                 	.MACRO __PUTD1S
                 	STD  Y+@0,R30
                 	STD  Y+@0+1,R31
                 	STD  Y+@0+2,R22
                 	STD  Y+@0+3,R23
                 	.ENDM
                 
                 	.MACRO __PUTD2S
                 	STD  Y+@0,R26
                 	STD  Y+@0+1,R27
                 	STD  Y+@0+2,R24
                 	STD  Y+@0+3,R25
                 	.ENDM
                 
                 	.MACRO __PUTDZ2
                 	STD  Z+@0,R26
                 	STD  Z+@0+1,R27
                 	STD  Z+@0+2,R24
                 	STD  Z+@0+3,R25
                 	.ENDM
                 
                 	.MACRO __CLRD1S
                 	STD  Y+@0,R30
                 	STD  Y+@0+1,R30
                 	STD  Y+@0+2,R30
                 	STD  Y+@0+3,R30
                 	.ENDM
                 
                 	.MACRO __POINTB1MN
                 	LDI  R30,LOW(@0+(@1))
                 	.ENDM
                 
                 	.MACRO __POINTW1MN
                 	LDI  R30,LOW(@0+(@1))
                 	LDI  R31,HIGH(@0+(@1))
                 	.ENDM
                 
                 	.MACRO __POINTD1M
                 	LDI  R30,LOW(@0)
                 	LDI  R31,HIGH(@0)
                 	LDI  R22,BYTE3(@0)
                 	LDI  R23,BYTE4(@0)
                 	.ENDM
                 
                 	.MACRO __POINTW1FN
                 	LDI  R30,LOW(2*@0+(@1))
                 	LDI  R31,HIGH(2*@0+(@1))
                 	.ENDM
                 
                 	.MACRO __POINTD1FN
                 	LDI  R30,LOW(2*@0+(@1))
                 	LDI  R31,HIGH(2*@0+(@1))
                 	LDI  R22,BYTE3(2*@0+(@1))
                 	LDI  R23,BYTE4(2*@0+(@1))
                 	.ENDM
                 
                 	.MACRO __POINTB2MN
                 	LDI  R26,LOW(@0+(@1))
                 	.ENDM
                 
                 	.MACRO __POINTW2MN
                 	LDI  R26,LOW(@0+(@1))
                 	LDI  R27,HIGH(@0+(@1))
                 	.ENDM
                 
                 	.MACRO __POINTW2FN
                 	LDI  R26,LOW(2*@0+(@1))
                 	LDI  R27,HIGH(2*@0+(@1))
                 	.ENDM
                 
                 	.MACRO __POINTD2FN
                 	LDI  R26,LOW(2*@0+(@1))
                 	LDI  R27,HIGH(2*@0+(@1))
                 	LDI  R24,BYTE3(2*@0+(@1))
                 	LDI  R25,BYTE4(2*@0+(@1))
                 	.ENDM
                 
                 	.MACRO __POINTBRM
                 	LDI  R@0,LOW(@1)
                 	.ENDM
                 
                 	.MACRO __POINTWRM
                 	LDI  R@0,LOW(@2)
                 	LDI  R@1,HIGH(@2)
                 	.ENDM
                 
                 	.MACRO __POINTBRMN
                 	LDI  R@0,LOW(@1+(@2))
                 	.ENDM
                 
                 	.MACRO __POINTWRMN
                 	LDI  R@0,LOW(@2+(@3))
                 	LDI  R@1,HIGH(@2+(@3))
                 	.ENDM
                 
                 	.MACRO __POINTWRFN
                 	LDI  R@0,LOW(@2*2+(@3))
                 	LDI  R@1,HIGH(@2*2+(@3))
                 	.ENDM
                 
                 	.MACRO __GETD1N
                 	LDI  R30,LOW(@0)
                 	LDI  R31,HIGH(@0)
                 	LDI  R22,BYTE3(@0)
                 	LDI  R23,BYTE4(@0)
                 	.ENDM
                 
                 	.MACRO __GETD2N
                 	LDI  R26,LOW(@0)
                 	LDI  R27,HIGH(@0)
                 	LDI  R24,BYTE3(@0)
                 	LDI  R25,BYTE4(@0)
                 	.ENDM
                 
                 	.MACRO __GETB1MN
                 	LDS  R30,@0+(@1)
                 	.ENDM
                 
                 	.MACRO __GETB1HMN
                 	LDS  R31,@0+(@1)
                 	.ENDM
                 
                 	.MACRO __GETW1MN
                 	LDS  R30,@0+(@1)
                 	LDS  R31,@0+(@1)+1
                 	.ENDM
                 
                 	.MACRO __GETD1MN
                 	LDS  R30,@0+(@1)
                 	LDS  R31,@0+(@1)+1
                 	LDS  R22,@0+(@1)+2
                 	LDS  R23,@0+(@1)+3
                 	.ENDM
                 
                 	.MACRO __GETBRMN
                 	LDS  R@0,@1+(@2)
                 	.ENDM
                 
                 	.MACRO __GETWRMN
                 	LDS  R@0,@2+(@3)
                 	LDS  R@1,@2+(@3)+1
                 	.ENDM
                 
                 	.MACRO __GETWRZ
                 	LDD  R@0,Z+@2
                 	LDD  R@1,Z+@2+1
                 	.ENDM
                 
                 	.MACRO __GETD2Z
                 	LDD  R26,Z+@0
                 	LDD  R27,Z+@0+1
                 	LDD  R24,Z+@0+2
                 	LDD  R25,Z+@0+3
                 	.ENDM
                 
                 	.MACRO __GETB2MN
                 	LDS  R26,@0+(@1)
                 	.ENDM
                 
                 	.MACRO __GETW2MN
                 	LDS  R26,@0+(@1)
                 	LDS  R27,@0+(@1)+1
                 	.ENDM
                 
                 	.MACRO __GETD2MN
                 	LDS  R26,@0+(@1)
                 	LDS  R27,@0+(@1)+1
                 	LDS  R24,@0+(@1)+2
                 	LDS  R25,@0+(@1)+3
                 	.ENDM
                 
                 	.MACRO __PUTB1MN
                 	STS  @0+(@1),R30
                 	.ENDM
                 
                 	.MACRO __PUTW1MN
                 	STS  @0+(@1),R30
                 	STS  @0+(@1)+1,R31
                 	.ENDM
                 
                 	.MACRO __PUTD1MN
                 	STS  @0+(@1),R30
                 	STS  @0+(@1)+1,R31
                 	STS  @0+(@1)+2,R22
                 	STS  @0+(@1)+3,R23
                 	.ENDM
                 
                 	.MACRO __PUTB1EN
                 	LDI  R26,LOW(@0+(@1))
                 	LDI  R27,HIGH(@0+(@1))
                 	RCALL __EEPROMWRB
                 	.ENDM
                 
                 	.MACRO __PUTW1EN
                 	LDI  R26,LOW(@0+(@1))
                 	LDI  R27,HIGH(@0+(@1))
                 	RCALL __EEPROMWRW
                 	.ENDM
                 
                 	.MACRO __PUTD1EN
                 	LDI  R26,LOW(@0+(@1))
                 	LDI  R27,HIGH(@0+(@1))
                 	RCALL __EEPROMWRD
                 	.ENDM
                 
                 	.MACRO __PUTBR0MN
                 	STS  @0+(@1),R0
                 	.ENDM
                 
                 	.MACRO __PUTBMRN
                 	STS  @0+(@1),R@2
                 	.ENDM
                 
                 	.MACRO __PUTWMRN
                 	STS  @0+(@1),R@2
                 	STS  @0+(@1)+1,R@3
                 	.ENDM
                 
                 	.MACRO __PUTBZR
                 	STD  Z+@1,R@0
                 	.ENDM
                 
                 	.MACRO __PUTWZR
                 	STD  Z+@2,R@0
                 	STD  Z+@2+1,R@1
                 	.ENDM
                 
                 	.MACRO __GETW1R
                 	MOV  R30,R@0
                 	MOV  R31,R@1
                 	.ENDM
                 
                 	.MACRO __GETW2R
                 	MOV  R26,R@0
                 	MOV  R27,R@1
                 	.ENDM
                 
                 	.MACRO __GETWRN
                 	LDI  R@0,LOW(@2)
                 	LDI  R@1,HIGH(@2)
                 	.ENDM
                 
                 	.MACRO __PUTW1R
                 	MOV  R@0,R30
                 	MOV  R@1,R31
                 	.ENDM
                 
                 	.MACRO __PUTW2R
                 	MOV  R@0,R26
                 	MOV  R@1,R27
                 	.ENDM
                 
                 	.MACRO __ADDWRN
                 	SUBI R@0,LOW(-@2)
                 	SBCI R@1,HIGH(-@2)
                 	.ENDM
                 
                 	.MACRO __ADDWRR
                 	ADD  R@0,R@2
                 	ADC  R@1,R@3
                 	.ENDM
                 
                 	.MACRO __SUBWRN
                 	SUBI R@0,LOW(@2)
                 	SBCI R@1,HIGH(@2)
                 	.ENDM
                 
                 	.MACRO __SUBWRR
                 	SUB  R@0,R@2
                 	SBC  R@1,R@3
                 	.ENDM
                 
                 	.MACRO __ANDWRN
                 	ANDI R@0,LOW(@2)
                 	ANDI R@1,HIGH(@2)
                 	.ENDM
                 
                 	.MACRO __ANDWRR
                 	AND  R@0,R@2
                 	AND  R@1,R@3
                 	.ENDM
                 
                 	.MACRO __ORWRN
                 	ORI  R@0,LOW(@2)
                 	ORI  R@1,HIGH(@2)
                 	.ENDM
                 
                 	.MACRO __ORWRR
                 	OR   R@0,R@2
                 	OR   R@1,R@3
                 	.ENDM
                 
                 	.MACRO __EORWRR
                 	EOR  R@0,R@2
                 	EOR  R@1,R@3
                 	.ENDM
                 
                 	.MACRO __GETWRS
                 	LDD  R@0,Y+@2
                 	LDD  R@1,Y+@2+1
                 	.ENDM
                 
                 	.MACRO __PUTBSR
                 	STD  Y+@1,R@0
                 	.ENDM
                 
                 	.MACRO __PUTWSR
                 	STD  Y+@2,R@0
                 	STD  Y+@2+1,R@1
                 	.ENDM
                 
                 	.MACRO __MOVEWRR
                 	MOV  R@0,R@2
                 	MOV  R@1,R@3
                 	.ENDM
                 
                 	.MACRO __INWR
                 	IN   R@0,@2
                 	IN   R@1,@2+1
                 	.ENDM
                 
                 	.MACRO __OUTWR
                 	OUT  @2+1,R@1
                 	OUT  @2,R@0
                 	.ENDM
                 
                 	.MACRO __CALL1MN
                 	LDS  R30,@0+(@1)
                 	LDS  R31,@0+(@1)+1
                 	ICALL
                 	.ENDM
                 
                 	.MACRO __CALL1FN
                 	LDI  R30,LOW(2*@0+(@1))
                 	LDI  R31,HIGH(2*@0+(@1))
                 	RCALL __GETW1PF
                 	ICALL
                 	.ENDM
                 
                 	.MACRO __CALL2EN
                 	LDI  R26,LOW(@0+(@1))
                 	LDI  R27,HIGH(@0+(@1))
                 	RCALL __EEPROMRDW
                 	ICALL
                 	.ENDM
                 
                 	.MACRO __GETW1STACK
                 	IN   R26,SPL
                 	IN   R27,SPH
                 	ADIW R26,@0+1
                 	LD   R30,X+
                 	LD   R31,X
                 	.ENDM
                 
                 	.MACRO __GETD1STACK
                 	IN   R26,SPL
                 	IN   R27,SPH
                 	ADIW R26,@0+1
                 	LD   R30,X+
                 	LD   R31,X+
                 	LD   R22,X
                 	.ENDM
                 
                 	.MACRO __NBST
                 	BST  R@0,@1
                 	IN   R30,SREG
                 	LDI  R31,0x40
                 	EOR  R30,R31
                 	OUT  SREG,R30
                 	.ENDM
                 
                 
                 	.MACRO __PUTB1SN
                 	LDD  R26,Y+@0
                 	LDD  R27,Y+@0+1
                 	SUBI R26,LOW(-@1)
                 	SBCI R27,HIGH(-@1)
                 	ST   X,R30
                 	.ENDM
                 
                 	.MACRO __PUTW1SN
                 	LDD  R26,Y+@0
                 	LDD  R27,Y+@0+1
                 	SUBI R26,LOW(-@1)
                 	SBCI R27,HIGH(-@1)
                 	ST   X+,R30
                 	ST   X,R31
                 	.ENDM
                 
                 	.MACRO __PUTD1SN
                 	LDD  R26,Y+@0
                 	LDD  R27,Y+@0+1
                 	SUBI R26,LOW(-@1)
                 	SBCI R27,HIGH(-@1)
                 	RCALL __PUTDP1
                 	.ENDM
                 
                 	.MACRO __PUTB1SNS
                 	LDD  R26,Y+@0
                 	LDD  R27,Y+@0+1
                 	ADIW R26,@1
                 	ST   X,R30
                 	.ENDM
                 
                 	.MACRO __PUTW1SNS
                 	LDD  R26,Y+@0
                 	LDD  R27,Y+@0+1
                 	ADIW R26,@1
                 	ST   X+,R30
                 	ST   X,R31
                 	.ENDM
                 
                 	.MACRO __PUTD1SNS
                 	LDD  R26,Y+@0
                 	LDD  R27,Y+@0+1
                 	ADIW R26,@1
                 	RCALL __PUTDP1
                 	.ENDM
                 
                 	.MACRO __PUTB1PMN
                 	LDS  R26,@0
                 	LDS  R27,@0+1
                 	SUBI R26,LOW(-@1)
                 	SBCI R27,HIGH(-@1)
                 	ST   X,R30
                 	.ENDM
                 
                 	.MACRO __PUTW1PMN
                 	LDS  R26,@0
                 	LDS  R27,@0+1
                 	SUBI R26,LOW(-@1)
                 	SBCI R27,HIGH(-@1)
                 	ST   X+,R30
                 	ST   X,R31
                 	.ENDM
                 
                 	.MACRO __PUTD1PMN
                 	LDS  R26,@0
                 	LDS  R27,@0+1
                 	SUBI R26,LOW(-@1)
                 	SBCI R27,HIGH(-@1)
                 	RCALL __PUTDP1
                 	.ENDM
                 
                 	.MACRO __PUTB1PMNS
                 	LDS  R26,@0
                 	LDS  R27,@0+1
                 	ADIW R26,@1
                 	ST   X,R30
                 	.ENDM
                 
                 	.MACRO __PUTW1PMNS
                 	LDS  R26,@0
                 	LDS  R27,@0+1
                 	ADIW R26,@1
                 	ST   X+,R30
                 	ST   X,R31
                 	.ENDM
                 
                 	.MACRO __PUTD1PMNS
                 	LDS  R26,@0
                 	LDS  R27,@0+1
                 	ADIW R26,@1
                 	RCALL __PUTDP1
                 	.ENDM
                 
                 	.MACRO __PUTB1RN
                 	MOVW R26,R@0
                 	SUBI R26,LOW(-@1)
                 	SBCI R27,HIGH(-@1)
                 	ST   X,R30
                 	.ENDM
                 
                 	.MACRO __PUTW1RN
                 	MOVW R26,R@0
                 	SUBI R26,LOW(-@1)
                 	SBCI R27,HIGH(-@1)
                 	ST   X+,R30
                 	ST   X,R31
                 	.ENDM
                 
                 	.MACRO __PUTD1RN
                 	MOVW R26,R@0
                 	SUBI R26,LOW(-@1)
                 	SBCI R27,HIGH(-@1)
                 	RCALL __PUTDP1
                 	.ENDM
                 
                 	.MACRO __PUTB1RNS
                 	MOVW R26,R@0
                 	ADIW R26,@1
                 	ST   X,R30
                 	.ENDM
                 
                 	.MACRO __PUTW1RNS
                 	MOVW R26,R@0
                 	ADIW R26,@1
                 	ST   X+,R30
                 	ST   X,R31
                 	.ENDM
                 
                 	.MACRO __PUTD1RNS
                 	MOVW R26,R@0
                 	ADIW R26,@1
                 	RCALL __PUTDP1
                 	.ENDM
                 
                 	.MACRO __PUTB1RON
                 	MOV  R26,R@0
                 	MOV  R27,R@1
                 	SUBI R26,LOW(-@2)
                 	SBCI R27,HIGH(-@2)
                 	ST   X,R30
                 	.ENDM
                 
                 	.MACRO __PUTW1RON
                 	MOV  R26,R@0
                 	MOV  R27,R@1
                 	SUBI R26,LOW(-@2)
                 	SBCI R27,HIGH(-@2)
                 	ST   X+,R30
                 	ST   X,R31
                 	.ENDM
                 
                 	.MACRO __PUTD1RON
                 	MOV  R26,R@0
                 	MOV  R27,R@1
                 	SUBI R26,LOW(-@2)
                 	SBCI R27,HIGH(-@2)
                 	RCALL __PUTDP1
                 	.ENDM
                 
                 	.MACRO __PUTB1RONS
                 	MOV  R26,R@0
                 	MOV  R27,R@1
                 	ADIW R26,@2
                 	ST   X,R30
                 	.ENDM
                 
                 	.MACRO __PUTW1RONS
                 	MOV  R26,R@0
                 	MOV  R27,R@1
                 	ADIW R26,@2
                 	ST   X+,R30
                 	ST   X,R31
                 	.ENDM
                 
                 	.MACRO __PUTD1RONS
                 	MOV  R26,R@0
                 	MOV  R27,R@1
                 	ADIW R26,@2
                 	RCALL __PUTDP1
                 	.ENDM
                 
                 
                 	.MACRO __GETB1SX
                 	MOVW R30,R28
                 	SUBI R30,LOW(-@0)
                 	SBCI R31,HIGH(-@0)
                 	LD   R30,Z
                 	.ENDM
                 
                 	.MACRO __GETB1HSX
                 	MOVW R30,R28
                 	SUBI R30,LOW(-@0)
                 	SBCI R31,HIGH(-@0)
                 	LD   R31,Z
                 	.ENDM
                 
                 	.MACRO __GETW1SX
                 	MOVW R30,R28
                 	SUBI R30,LOW(-@0)
                 	SBCI R31,HIGH(-@0)
                 	LD   R0,Z+
                 	LD   R31,Z
                 	MOV  R30,R0
                 	.ENDM
                 
                 	.MACRO __GETD1SX
                 	MOVW R30,R28
                 	SUBI R30,LOW(-@0)
                 	SBCI R31,HIGH(-@0)
                 	LD   R0,Z+
                 	LD   R1,Z+
                 	LD   R22,Z+
                 	LD   R23,Z
                 	MOVW R30,R0
                 	.ENDM
                 
                 	.MACRO __GETB2SX
                 	MOVW R26,R28
                 	SUBI R26,LOW(-@0)
                 	SBCI R27,HIGH(-@0)
                 	LD   R26,X
                 	.ENDM
                 
                 	.MACRO __GETW2SX
                 	MOVW R26,R28
                 	SUBI R26,LOW(-@0)
                 	SBCI R27,HIGH(-@0)
                 	LD   R0,X+
                 	LD   R27,X
                 	MOV  R26,R0
                 	.ENDM
                 
                 	.MACRO __GETD2SX
                 	MOVW R26,R28
                 	SUBI R26,LOW(-@0)
                 	SBCI R27,HIGH(-@0)
                 	LD   R0,X+
                 	LD   R1,X+
                 	LD   R24,X+
                 	LD   R25,X
                 	MOVW R26,R0
                 	.ENDM
                 
                 	.MACRO __GETBRSX
                 	MOVW R30,R28
                 	SUBI R30,LOW(-@1)
                 	SBCI R31,HIGH(-@1)
                 	LD   R@0,Z
                 	.ENDM
                 
                 	.MACRO __GETWRSX
                 	MOVW R30,R28
                 	SUBI R30,LOW(-@2)
                 	SBCI R31,HIGH(-@2)
                 	LD   R@0,Z+
                 	LD   R@1,Z
                 	.ENDM
                 
                 	.MACRO __GETBRSX2
                 	MOVW R26,R28
                 	SUBI R26,LOW(-@1)
                 	SBCI R27,HIGH(-@1)
                 	LD   R@0,X
                 	.ENDM
                 
                 	.MACRO __GETWRSX2
                 	MOVW R26,R28
                 	SUBI R26,LOW(-@2)
                 	SBCI R27,HIGH(-@2)
                 	LD   R@0,X+
                 	LD   R@1,X
                 	.ENDM
                 
                 	.MACRO __LSLW8SX
                 	MOVW R30,R28
                 	SUBI R30,LOW(-@0)
                 	SBCI R31,HIGH(-@0)
                 	LD   R31,Z
                 	CLR  R30
                 	.ENDM
                 
                 	.MACRO __PUTB1SX
                 	MOVW R26,R28
                 	SUBI R26,LOW(-@0)
                 	SBCI R27,HIGH(-@0)
                 	ST   X,R30
                 	.ENDM
                 
                 	.MACRO __PUTW1SX
                 	MOVW R26,R28
                 	SUBI R26,LOW(-@0)
                 	SBCI R27,HIGH(-@0)
                 	ST   X+,R30
                 	ST   X,R31
                 	.ENDM
                 
                 	.MACRO __PUTD1SX
                 	MOVW R26,R28
                 	SUBI R26,LOW(-@0)
                 	SBCI R27,HIGH(-@0)
                 	ST   X+,R30
                 	ST   X+,R31
                 	ST   X+,R22
                 	ST   X,R23
                 	.ENDM
                 
                 	.MACRO __CLRW1SX
                 	MOVW R26,R28
                 	SUBI R26,LOW(-@0)
                 	SBCI R27,HIGH(-@0)
                 	ST   X+,R30
                 	ST   X,R30
                 	.ENDM
                 
                 	.MACRO __CLRD1SX
                 	MOVW R26,R28
                 	SUBI R26,LOW(-@0)
                 	SBCI R27,HIGH(-@0)
                 	ST   X+,R30
                 	ST   X+,R30
                 	ST   X+,R30
                 	ST   X,R30
                 	.ENDM
                 
                 	.MACRO __PUTB2SX
                 	MOVW R30,R28
                 	SUBI R30,LOW(-@0)
                 	SBCI R31,HIGH(-@0)
                 	ST   Z,R26
                 	.ENDM
                 
                 	.MACRO __PUTW2SX
                 	MOVW R30,R28
                 	SUBI R30,LOW(-@0)
                 	SBCI R31,HIGH(-@0)
                 	ST   Z+,R26
                 	ST   Z,R27
                 	.ENDM
                 
                 	.MACRO __PUTD2SX
                 	MOVW R30,R28
                 	SUBI R30,LOW(-@0)
                 	SBCI R31,HIGH(-@0)
                 	ST   Z+,R26
                 	ST   Z+,R27
                 	ST   Z+,R24
                 	ST   Z,R25
                 	.ENDM
                 
                 	.MACRO __PUTBSRX
                 	MOVW R30,R28
                 	SUBI R30,LOW(-@1)
                 	SBCI R31,HIGH(-@1)
                 	ST   Z,R@0
                 	.ENDM
                 
                 	.MACRO __PUTWSRX
                 	MOVW R30,R28
                 	SUBI R30,LOW(-@2)
                 	SBCI R31,HIGH(-@2)
                 	ST   Z+,R@0
                 	ST   Z,R@1
                 	.ENDM
                 
                 	.MACRO __PUTB1SNX
                 	MOVW R26,R28
                 	SUBI R26,LOW(-@0)
                 	SBCI R27,HIGH(-@0)
                 	LD   R0,X+
                 	LD   R27,X
                 	MOV  R26,R0
                 	SUBI R26,LOW(-@1)
                 	SBCI R27,HIGH(-@1)
                 	ST   X,R30
                 	.ENDM
                 
                 	.MACRO __PUTW1SNX
                 	MOVW R26,R28
                 	SUBI R26,LOW(-@0)
                 	SBCI R27,HIGH(-@0)
                 	LD   R0,X+
                 	LD   R27,X
                 	MOV  R26,R0
                 	SUBI R26,LOW(-@1)
                 	SBCI R27,HIGH(-@1)
                 	ST   X+,R30
                 	ST   X,R31
                 	.ENDM
                 
                 	.MACRO __PUTD1SNX
                 	MOVW R26,R28
                 	SUBI R26,LOW(-@0)
                 	SBCI R27,HIGH(-@0)
                 	LD   R0,X+
                 	LD   R27,X
                 	MOV  R26,R0
                 	SUBI R26,LOW(-@1)
                 	SBCI R27,HIGH(-@1)
                 	ST   X+,R30
                 	ST   X+,R31
                 	ST   X+,R22
                 	ST   X,R23
                 	.ENDM
                 
                 	.MACRO __MULBRR
                 	MULS R@0,R@1
                 	MOVW R30,R0
                 	.ENDM
                 
                 	.MACRO __MULBRRU
                 	MUL  R@0,R@1
                 	MOVW R30,R0
                 	.ENDM
                 
                 	.MACRO __MULBRR0
                 	MULS R@0,R@1
                 	.ENDM
                 
                 	.MACRO __MULBRRU0
                 	MUL  R@0,R@1
                 	.ENDM
                 
                 	.MACRO __MULBNWRU
                 	LDI  R26,@2
                 	MUL  R26,R@0
                 	MOVW R30,R0
                 	MUL  R26,R@1
                 	ADD  R31,R0
                 	.ENDM
                 
                 ;NAME DEFINITIONS FOR GLOBAL VARIABLES ALLOCATED TO REGISTERS
                 	.DEF _ac1=R4
                 	.DEF _ac2=R6
                 	.DEF _ac3=R8
                 	.DEF _b1=R10
                 	.DEF _b2=R12
                 
                 	.CSEG
                 	.ORG 0x00
                 
                 ;START OF CODE MARKER
                 __START_OF_CODE:
                 
                 ;INTERRUPT VECTORS
000000 c06f      	RJMP __RESET
000001 c54d      	RJMP _ext_int0_isr
000002 c562      	RJMP _ext_int1_isr
000003 cffc      	RJMP 0x00
000004 cffb      	RJMP 0x00
000005 cffa      	RJMP 0x00
000006 c56e      	RJMP _timer1_compa_isr
000007 cff8      	RJMP 0x00
000008 c580      	RJMP _timer1_ovf_isr
000009 cff6      	RJMP 0x00
00000a cff5      	RJMP 0x00
00000b c47a      	RJMP _usart_rx_isr
00000c cff3      	RJMP 0x00
00000d cff2      	RJMP 0x00
00000e cff1      	RJMP 0x00
00000f cff0      	RJMP 0x00
000010 cfef      	RJMP 0x00
000011 cfee      	RJMP 0x00
000012 cfed      	RJMP 0x00
                 
                 ;REGISTER BIT VARIABLES INITIALIZATION
                 __REG_BIT_VARS:
000013 0000      	.DW  0x0000
                 
                 _0x64:
000014 0000
000015 c080      	.DB  0x0,0x0,0x80,0xC0
                 _0x65:
000016 e354
000017 3d25      	.DB  0x54,0xE3,0x25,0x3D
                 _0x66:
000018 e7a2
000019 b63b      	.DB  0xA2,0xE7,0x3B,0xB6
                 _0x67:
00001a d70a
00001b 3c23      	.DB  0xA,0xD7,0x23,0x3C
                 _0x68:
00001c c5ac
00001d 38a7      	.DB  0xAC,0xC5,0xA7,0x38
                 _0x0:
00001e 4b4f
00001f 000a
000020 2541
000021 4264      	.DB  0x4F,0x4B,0xA,0x0,0x41,0x25,0x64,0x42
000022 6425
000023 2543
000024 4464
000025 6425      	.DB  0x25,0x64,0x43,0x25,0x64,0x44,0x25,0x64
000026 2545
000027 4664
000028 6425
000029 2547      	.DB  0x45,0x25,0x64,0x46,0x25,0x64,0x47,0x25
00002a 646c
00002b 2548
00002c 4964
00002d 6425      	.DB  0x6C,0x64,0x48,0x25,0x64,0x49,0x25,0x64
00002e 254a
00002f 4b64
000030 6425
000031 0a5a      	.DB  0x4A,0x25,0x64,0x4B,0x25,0x64,0x5A,0xA
000032 4400
000033 3231
000034 3433
000035 3635      	.DB  0x0,0x44,0x31,0x32,0x33,0x34,0x35,0x36
000036 3837
000037 3039
000038 3231
000039 3433      	.DB  0x37,0x38,0x39,0x30,0x31,0x32,0x33,0x34
00003a 3635
00003b 3837
00003c 3039
00003d 3231      	.DB  0x35,0x36,0x37,0x38,0x39,0x30,0x31,0x32
00003e 3433
00003f 3635
000040 3837
000041 3039      	.DB  0x33,0x34,0x35,0x36,0x37,0x38,0x39,0x30
000042 000a
000043 254c
000044 5a64
000045 000a      	.DB  0xA,0x0,0x4C,0x25,0x64,0x5A,0xA,0x0
000046 2554
000047 5a64
000048 000a
000049 2550      	.DB  0x54,0x25,0x64,0x5A,0xA,0x0,0x50,0x25
00004a 5a64
00004b 000a
00004c 0a57
00004d 5300      	.DB  0x64,0x5A,0xA,0x0,0x57,0xA,0x0,0x53
00004e 000a
00004f 3130
000050 3332
000051 3534      	.DB  0xA,0x0,0x30,0x31,0x32,0x33,0x34,0x35
000052 3736
000053 3938
000054 6130
000055 6362      	.DB  0x36,0x37,0x38,0x39,0x30,0x61,0x62,0x63
000056 6564
000057 6766
000058 6968
000059 6b6a      	.DB  0x64,0x65,0x66,0x67,0x68,0x69,0x6A,0x6B
00005a 6d6c
00005b 6f6e
00005c 7170
00005d 7372      	.DB  0x6C,0x6D,0x6E,0x6F,0x70,0x71,0x72,0x73
00005e 7574
00005f 7776
000060 7978
000061 0d7a      	.DB  0x74,0x75,0x76,0x77,0x78,0x79,0x7A,0xD
000062 000a      	.DB  0xA,0x0
                 _0x2020060:
D:\Dropbox\TUGAS AKHIR\PROGRAM DAN HARDWARE\CODE MIKROKONTROLER\List\weather_station.asm(1137): warning: .cseg .db misalignment - padding zero byte
000063 0001      	.DB  0x1
                 _0x2020000:
000064 4e2d
000065 4e41
000066 4900
000067 464e      	.DB  0x2D,0x4E,0x41,0x4E,0x0,0x49,0x4E,0x46
D:\Dropbox\TUGAS AKHIR\PROGRAM DAN HARDWARE\CODE MIKROKONTROLER\List\weather_station.asm(1140): warning: .cseg .db misalignment - padding zero byte
000068 0000      	.DB  0x0
                 
                 __GLOBAL_INI_TBL:
000069 0002      	.DW  0x02
00006a 0002      	.DW  0x02
00006b 0026      	.DW  __REG_BIT_VARS*2
                 
00006c 0001      	.DW  0x01
00006d 01ff      	.DW  __seed_G101
00006e 00c6      	.DW  _0x2020060*2
                 
                 _0xFFFFFFFF:
00006f 0000      	.DW  0
                 
                 __RESET:
000070 94f8      	CLI
000071 27ee      	CLR  R30
000072 bbec      	OUT  EECR,R30
                 
                 ;INTERRUPT VECTORS ARE PLACED
                 ;AT THE START OF FLASH
000073 e0f1      	LDI  R31,1
000074 bffb      	OUT  GICR,R31
000075 bfeb      	OUT  GICR,R30
000076 bfe5      	OUT  MCUCR,R30
                 
                 ;DISABLE WATCHDOG
000077 e1f8      	LDI  R31,0x18
000078 bdf1      	OUT  WDTCR,R31
000079 bde1      	OUT  WDTCR,R30
                 
                 ;CLEAR R2-R14
00007a e08d      	LDI  R24,(14-2)+1
00007b e0a2      	LDI  R26,2
00007c 27bb      	CLR  R27
                 __CLEAR_REG:
00007d 93ed      	ST   X+,R30
00007e 958a      	DEC  R24
00007f f7e9      	BRNE __CLEAR_REG
                 
                 ;CLEAR SRAM
000080 e080      	LDI  R24,LOW(__CLEAR_SRAM_SIZE)
000081 e094      	LDI  R25,HIGH(__CLEAR_SRAM_SIZE)
000082 e6a0      	LDI  R26,__SRAM_START
                 __CLEAR_SRAM:
000083 93ed      	ST   X+,R30
000084 9701      	SBIW R24,1
000085 f7e9      	BRNE __CLEAR_SRAM
                 
                 ;GLOBAL VARIABLES INITIALIZATION
000086 ede2      	LDI  R30,LOW(__GLOBAL_INI_TBL*2)
000087 e0f0      	LDI  R31,HIGH(__GLOBAL_INI_TBL*2)
                 __GLOBAL_INI_NEXT:
000088 9185      	LPM  R24,Z+
000089 9195      	LPM  R25,Z+
00008a 9700      	SBIW R24,0
00008b f061      	BREQ __GLOBAL_INI_END
00008c 91a5      	LPM  R26,Z+
00008d 91b5      	LPM  R27,Z+
00008e 9005      	LPM  R0,Z+
00008f 9015      	LPM  R1,Z+
000090 01bf      	MOVW R22,R30
000091 01f0      	MOVW R30,R0
                 __GLOBAL_INI_LOOP:
000092 9005      	LPM  R0,Z+
000093 920d      	ST   X+,R0
000094 9701      	SBIW R24,1
000095 f7e1      	BRNE __GLOBAL_INI_LOOP
000096 01fb      	MOVW R30,R22
000097 cff0      	RJMP __GLOBAL_INI_NEXT
                 __GLOBAL_INI_END:
                 
                 ;HARDWARE STACK POINTER INITIALIZATION
000098 e5ef      	LDI  R30,LOW(__SRAM_END-__HEAP_SIZE)
000099 bfed      	OUT  SPL,R30
00009a e0e4      	LDI  R30,HIGH(__SRAM_END-__HEAP_SIZE)
00009b bfee      	OUT  SPH,R30
                 
                 ;DATA STACK POINTER INITIALIZATION
00009c e6c0      	LDI  R28,LOW(__SRAM_START+__DSTACK_SIZE)
00009d e0d1      	LDI  R29,HIGH(__SRAM_START+__DSTACK_SIZE)
                 
00009e c4f5      	RJMP _main
                 
                 	.ESEG
                 	.ORG 0
                 
                 	.DSEG
                 	.ORG 0x160
                 
                 	.CSEG
                 ;#include <mega8.h> //1.8432MHz
                 	#ifndef __SLEEP_DEFINED__
                 	#define __SLEEP_DEFINED__
                 	.EQU __se_bit=0x80
                 	.EQU __sm_mask=0x70
                 	.EQU __sm_powerdown=0x20
                 	.EQU __sm_powersave=0x30
                 	.EQU __sm_standby=0x60
                 	.EQU __sm_ext_standby=0x70
                 	.EQU __sm_adc_noise_red=0x10
                 	.SET power_ctrl_reg=mcucr
                 	#endif
                 ;#include <stdio.h>
                 ;#include <stdlib.h>
                 ;#include <delay.h>
                 ;#include <bcd.h>
                 ;#include <sleep.h>
                 ;#include <math.h>
                 ;#include <ds3231.c>
                 ;#include <i2c.h>
                 ;
                 ;void alarm_mati(){
                 ; 0000 0008 void alarm_mati(){
                 
                 	.CSEG
                 _alarm_mati:
                 ;i2c_start();
00009f d8d2      	RCALL SUBOPT_0x0
                 ;i2c_write(0xd0);
                 ;i2c_write(15);
0000a0 e0af      	LDI  R26,LOW(15)
0000a1 dad8      	RCALL _i2c_write
                 ;i2c_write(0b00000000);
0000a2 e0a0      	LDI  R26,LOW(0)
0000a3 c004      	RJMP _0x20E0004
                 ;i2c_stop();
                 ;}
                 ;
                 ;void set_rtc(){
                 _set_rtc:
                 ;i2c_start();
0000a4 d8cd      	RCALL SUBOPT_0x0
                 ;i2c_write(0xd0);
                 ;i2c_write(14); //control 0x0E
0000a5 e0ae      	LDI  R26,LOW(14)
0000a6 dad3      	RCALL _i2c_write
                 ;i2c_write(0b00000110); //bit7=disable osc, bit2=alarm enable bit1=alarm2 enable
0000a7 e0a6      	LDI  R26,LOW(6)
                 _0x20E0004:
0000a8 dad1      	RCALL _i2c_write
                 ;i2c_stop();
0000a9 daab      	RCALL _i2c_stop
                 ;}
0000aa 9508      	RET
                 ;
                 ;void set_alarm(unsigned char jam,unsigned char menit){
                 _set_alarm:
                 ;i2c_start();
0000ab 93aa      	ST   -Y,R26
                 ;	jam -> Y+1
                 ;	menit -> Y+0
0000ac d8c5      	RCALL SUBOPT_0x0
                 ;i2c_write(0xd0);
                 ;i2c_write(11);
0000ad e0ab      	LDI  R26,LOW(11)
0000ae d8c6      	RCALL SUBOPT_0x1
                 ;i2c_write(bin2bcd(menit)&0b01111111);
0000af 77ef      	ANDI R30,0x7F
0000b0 d8c7      	RCALL SUBOPT_0x2
                 ;i2c_write(bin2bcd(jam)&0b01111111);
0000b1 81a9      	LDD  R26,Y+1
0000b2 d88e      	RCALL _bin2bcd
0000b3 77ef      	ANDI R30,0x7F
0000b4 d8c3      	RCALL SUBOPT_0x2
                 ;i2c_write(0b10000000);
0000b5 e8a0      	LDI  R26,LOW(128)
0000b6 dac3      	RCALL _i2c_write
                 ;i2c_stop();
0000b7 da9d      	RCALL _i2c_stop
                 ;}
0000b8 9622      	ADIW R28,2
0000b9 9508      	RET
                 ;
                 ;void set_waktu(unsigned char jam,unsigned char menit,unsigned char detik){
                 _set_waktu:
                 ;i2c_start();
0000ba 93aa      	ST   -Y,R26
                 ;	jam -> Y+2
                 ;	menit -> Y+1
                 ;	detik -> Y+0
0000bb d8b6      	RCALL SUBOPT_0x0
                 ;i2c_write(0xd0);
                 ;i2c_write(0);
0000bc e0a0      	LDI  R26,LOW(0)
0000bd d8b7      	RCALL SUBOPT_0x1
                 ;i2c_write(bin2bcd(detik));
0000be d8b9      	RCALL SUBOPT_0x2
                 ;i2c_write(bin2bcd(menit));
0000bf 81a9      	LDD  R26,Y+1
0000c0 d880      	RCALL _bin2bcd
0000c1 d8b6      	RCALL SUBOPT_0x2
                 ;i2c_write(bin2bcd(jam));
0000c2 81aa      	LDD  R26,Y+2
0000c3 d87d      	RCALL _bin2bcd
0000c4 d8b3      	RCALL SUBOPT_0x2
                 ;i2c_stop();
0000c5 da8f      	RCALL _i2c_stop
                 ;}
0000c6 c6cc      	RJMP _0x20E0001
                 ;
                 ;void jam_brp(unsigned char *jam,unsigned char *menit,unsigned char *detik){
                 _jam_brp:
                 ;i2c_start();
0000c7 93ba      	ST   -Y,R27
0000c8 93aa      	ST   -Y,R26
                 ;	*jam -> Y+4
                 ;	*menit -> Y+2
                 ;	*detik -> Y+0
0000c9 d8a8      	RCALL SUBOPT_0x0
                 ;i2c_write(0xd0);
                 ;i2c_write(0);
0000ca e0a0      	LDI  R26,LOW(0)
0000cb d8ae      	RCALL SUBOPT_0x3
                 ;i2c_start();
                 ;i2c_write(0xd1);
                 ;*detik=bcd2bin(i2c_read(1));
0000cc 81a8      	LD   R26,Y
0000cd 81b9      	LDD  R27,Y+1
0000ce d8b3      	RCALL SUBOPT_0x4
                 ;*menit=bcd2bin(i2c_read(1));
                 ;*jam=bcd2bin(i2c_read(0));
0000cf 81ac      	LDD  R26,Y+4
0000d0 81bd      	LDD  R27,Y+4+1
0000d1 93ec      	ST   X,R30
                 ;i2c_stop();
0000d2 da82      	RCALL _i2c_stop
                 ;}
0000d3 c398      	RJMP _0x20E0003
                 ;
                 ;void tgl_brp(unsigned char *tanggal,unsigned char *bulan,unsigned char *tahun){
                 _tgl_brp:
                 ;i2c_start();
0000d4 d8b9      	RCALL SUBOPT_0x5
                 ;	*tanggal -> Y+4
                 ;	*bulan -> Y+2
                 ;	*tahun -> Y+0
0000d5 d89c      	RCALL SUBOPT_0x0
                 ;i2c_write(0xd0);
                 ;i2c_write(4);
0000d6 e0a4      	LDI  R26,LOW(4)
0000d7 d8a2      	RCALL SUBOPT_0x3
                 ;i2c_start();
                 ;i2c_write(0xd1);
                 ;*tanggal=bcd2bin(i2c_read(1));
0000d8 81ac      	LDD  R26,Y+4
0000d9 81bd      	LDD  R27,Y+4+1
0000da d8a7      	RCALL SUBOPT_0x4
                 ;*bulan=bcd2bin(i2c_read(1));
                 ;*tahun=bcd2bin(i2c_read(0));
0000db 81a8      	LD   R26,Y
0000dc 81b9      	LDD  R27,Y+1
0000dd 93ec      	ST   X,R30
                 ;i2c_stop();
0000de da76      	RCALL _i2c_stop
                 ;}
0000df c38c      	RJMP _0x20E0003
                 ;
                 ;void set_tgl(unsigned char tanggal,unsigned char bulan,unsigned char tahun){
                 _set_tgl:
                 ;i2c_start();
0000e0 93aa      	ST   -Y,R26
                 ;	tanggal -> Y+2
                 ;	bulan -> Y+1
                 ;	tahun -> Y+0
0000e1 d890      	RCALL SUBOPT_0x0
                 ;i2c_write(0xd0);
                 ;i2c_write(4);
0000e2 e0a4      	LDI  R26,LOW(4)
0000e3 da96      	RCALL _i2c_write
                 ;i2c_write(bin2bcd(tanggal));
0000e4 81aa      	LDD  R26,Y+2
0000e5 d85b      	RCALL _bin2bcd
0000e6 d891      	RCALL SUBOPT_0x2
                 ;i2c_write(bin2bcd(bulan));
0000e7 81a9      	LDD  R26,Y+1
0000e8 d858      	RCALL _bin2bcd
0000e9 2fae      	MOV  R26,R30
0000ea d88a      	RCALL SUBOPT_0x1
                 ;i2c_write(bin2bcd(tahun));
0000eb d88c      	RCALL SUBOPT_0x2
                 ;i2c_stop();
0000ec da68      	RCALL _i2c_stop
                 ;}
0000ed c6a5      	RJMP _0x20E0001
                 ;#include <sht11.c>
                 ;typedef union
                 ;{ unsigned int i;
                 ;  float f;
                 ;} value;
                 ;
                 ;enum {TEMP,HUMI};
                 ;
                 ;#define        DATA_OUT           PORTC.2
                 ;#define        DATA_IN            PINC.2
                 ;#define        SCK                PORTC.3
                 ;#define noACK 0
                 ;#define ACK   1
                 ;                            //adr  command  r/w
                 ;#define STATUS_REG_W 0x06   //000   0011    0
                 ;#define STATUS_REG_R 0x07   //000   0011    1
                 ;#define UKUR_SUHU    0x03   //000   0001    1
                 ;#define UKUR_HUMI    0x05   //000   0010    1
                 ;#define RESET        0x1e   //000   1111    0
                 ;
                 ;unsigned int nilaisuhu[2]={0,0};
                 ;
                 ;//Untuk menulis data ke SHT11
                 ;char tulis_SHT(unsigned char bytte)
                 ; 0000 0009 {
                 _tulis_SHT:
                 ;  unsigned char i,error=0;
                 ;  DDRC.2=1;
0000ee 93aa      	ST   -Y,R26
0000ef dd76      	RCALL __SAVELOCR2
                 ;	bytte -> Y+2
                 ;	i -> R17
                 ;	error -> R16
0000f0 e000      	LDI  R16,0
0000f1 9aa2      	SBI  0x14,2
                 ;  for (i=0x80;i>0;i/=2) //shift bit
0000f2 e810      	LDI  R17,LOW(128)
                 _0x6:
0000f3 3011      	CPI  R17,1
0000f4 f050      	BRLO _0x7
                 ;  {
                 ;    if (i & bytte)
0000f5 81ea      	LDD  R30,Y+2
0000f6 23e1      	AND  R30,R17
0000f7 f011      	BREQ _0x8
                 ;    DATA_OUT=1;
0000f8 9aaa      	SBI  0x15,2
                 ;    else DATA_OUT=0;
0000f9 c001      	RJMP _0xB
                 _0x8:
0000fa 98aa      	CBI  0x15,2
                 ;    SCK=1;       //clk
                 _0xB:
0000fb d895      	RCALL SUBOPT_0x6
                 ;    delay_us(1); //delay 5 us
                 ;    SCK=0;
0000fc 98ab      	CBI  0x15,3
                 ;  }
0000fd d898      	RCALL SUBOPT_0x7
0000fe cff4      	RJMP _0x6
                 _0x7:
                 ;  DATA_OUT=1;
0000ff 9aaa      	SBI  0x15,2
                 ;  DDRC.2=0;
000100 98a2      	CBI  0x14,2
                 ;  SCK=1;                //clk #9 ack
000101 d88f      	RCALL SUBOPT_0x6
                 ;  delay_us(1);
                 ;  error=DATA_IN;        //cek ack (DATA akan di pull down oleh SHT11)
000102 e0e0      	LDI  R30,0
000103 999a      	SBIC 0x13,2
000104 e0e1      	LDI  R30,1
000105 2f0e      	MOV  R16,R30
                 ;  delay_us(1);
000106 d896      	RCALL SUBOPT_0x8
                 ;  SCK=0;
                 ;  return error;         //cek jika ada error
000107 2fe0      	MOV  R30,R16
000108 dd64      	RCALL __LOADLOCR2
000109 c689      	RJMP _0x20E0001
                 ;}
                 ;
                 ;//Untuk membaca data dari SHT11
                 ;char baca_SHT(unsigned char ack)
                 ;{
                 _baca_SHT:
                 ;  unsigned char i,val=0;
                 ;  DDRC.2=0;                // DATA Input
00010a 93aa      	ST   -Y,R26
00010b dd5a      	RCALL __SAVELOCR2
                 ;	ack -> Y+2
                 ;	i -> R17
                 ;	val -> R16
00010c e000      	LDI  R16,0
00010d 98a2      	CBI  0x14,2
                 ;  for (i=0x80;i>0;i/=2)             //shift bit
00010e e810      	LDI  R17,LOW(128)
                 _0x1D:
00010f 3011      	CPI  R17,1
000110 f030      	BRLO _0x1E
                 ;  { SCK=1;                          //clk
000111 d87f      	RCALL SUBOPT_0x6
                 ;    delay_us(1);
                 ;    if (DATA_IN) val=(val | i);     //baca bit
000112 999a      	SBIC 0x13,2
000113 2b01      	OR   R16,R17
                 ;    delay_us(1);
000114 d888      	RCALL SUBOPT_0x8
                 ;    SCK=0;
                 ;  }
000115 d880      	RCALL SUBOPT_0x7
000116 cff8      	RJMP _0x1D
                 _0x1E:
                 ;  DDRC.2=1;
000117 9aa2      	SBI  0x14,2
                 ;  DATA_OUT=!ack;        //"ack==1" pull down DATA-Line
000118 81ea      	LDD  R30,Y+2
000119 30e0      	CPI  R30,0
00011a f011      	BREQ _0x26
00011b 98aa      	CBI  0x15,2
00011c c001      	RJMP _0x27
                 _0x26:
00011d 9aaa      	SBI  0x15,2
                 _0x27:
                 ;  SCK=1;                //clk #9 ack
00011e d872      	RCALL SUBOPT_0x6
                 ;  delay_us(1);          //delay 5 us
                 ;  SCK=0;
00011f 98ab      	CBI  0x15,3
                 ;  DATA_OUT=1;           //DATA-line
000120 9aaa      	SBI  0x15,2
                 ;  return val;
000121 2fe0      	MOV  R30,R16
000122 dd4a      	RCALL __LOADLOCR2
000123 c66f      	RJMP _0x20E0001
                 ;}
                 ;//----------------------------------------------------------------------------------
                 ;// menghasilkan sinyal awal untuk transmisi data
                 ;//       _____         ________
                 ;// DATA:      |_______|
                 ;//           ___     ___
                 ;// SCK : ___|   |___|   |______
                 ;//----------------------------------------------------------------------------------
                 ;
                 ;//Untuk memulai transmisi data
                 ;void start_SHT(void)
                 ;{
                 _start_SHT:
                 ;   DDRC.2=1;
000124 9aa2      	SBI  0x14,2
                 ;   DATA_OUT=1; SCK=0;   //Inisial state
000125 9aaa      	SBI  0x15,2
000126 d87b      	RCALL SUBOPT_0x9
                 ;   delay_us(1);
                 ;   SCK=1;
000127 d869      	RCALL SUBOPT_0x6
                 ;   delay_us(1);
                 ;   DATA_OUT=0;
000128 98aa      	CBI  0x15,2
                 ;   delay_us(1);
000129 d873      	RCALL SUBOPT_0x8
                 ;   SCK=0;
                 ;   delay_us(1);
                +
00012a e081     +LDI R24 , LOW ( 1 )
                +__DELAY_USB_LOOP :
00012b 958a     +DEC R24
00012c f7f1     +BRNE __DELAY_USB_LOOP
                 	__DELAY_USB 1
                 ;   SCK=1;
00012d d863      	RCALL SUBOPT_0x6
                 ;   delay_us(1);
                 ;   DATA_OUT=1;
00012e 9aaa      	SBI  0x15,2
                 ;   delay_us(1);
00012f d86d      	RCALL SUBOPT_0x8
                 ;   SCK=0;
                 ;   DDRC.2=0;
000130 98a2      	CBI  0x14,2
                 ;}
000131 9508      	RET
                 ;//----------------------------------------------------------------------------------
                 ;// reset: DATA-line=1 dengan 9 SCK cycle di awal
                 ;//       _____________________________________________________         ________
                 ;// DATA:                                                      |_______|
                 ;//          _    _    _    _    _    _    _    _    _        ___     ___
                 ;// SCK : __| |__| |__| |__| |__| |__| |__| |__| |__| |______|   |___|   |______
                 ;//----------------------------------------------------------------------------------
                 ;
                 ;//Untuk mereset koneksi dengan SHT11
                 ;void reset_SHT(void)
                 ;{
                 _reset_SHT:
                 ;  unsigned char i;
                 ;  DDRC.2=1;
000132 931a      	ST   -Y,R17
                 ;	i -> R17
000133 9aa2      	SBI  0x14,2
                 ;  DATA_OUT=1; SCK=0;    //Inisial state
000134 9aaa      	SBI  0x15,2
000135 98ab      	CBI  0x15,3
                 ;  for(i=0;i<9;i++)      //9 SCK cycle
000136 e010      	LDI  R17,LOW(0)
                 _0x49:
000137 3019      	CPI  R17,9
000138 f420      	BRSH _0x4A
                 ;  { SCK=1;
000139 d857      	RCALL SUBOPT_0x6
                 ;    delay_us(1);
                 ;    SCK=0;
00013a d867      	RCALL SUBOPT_0x9
                 ;    delay_us(1);
                 ;  }
00013b 5f1f      	SUBI R17,-1
00013c cffa      	RJMP _0x49
                 _0x4A:
                 ;  start_SHT();          //start transmisi data
00013d dfe6      	RCALL _start_SHT
                 ;  DDRC.2=0;
00013e 98a2      	CBI  0x14,2
                 ;}
00013f 9119      	LD   R17,Y+
000140 9508      	RET
                 ;
                 ;//Mengecek status register sensor
                 ;char StatusReg_SHT(unsigned char *p_value, unsigned char *p_checksum)
                 ;{
                 _StatusReg_SHT:
                 ;  unsigned char error=0;
                 ;  start_SHT();                   //start transmisi data
000141 d84c      	RCALL SUBOPT_0x5
000142 931a      	ST   -Y,R17
                 ;	*p_value -> Y+3
                 ;	*p_checksum -> Y+1
                 ;	error -> R17
000143 e010      	LDI  R17,0
000144 dfdf      	RCALL _start_SHT
                 ;  error=tulis_SHT(STATUS_REG_R); //mengirim command ke sensor
000145 e0a7      	LDI  R26,LOW(7)
000146 dfa7      	RCALL _tulis_SHT
000147 2f1e      	MOV  R17,R30
                 ;  *p_value=baca_SHT(ACK);        //baca status register (8-bit)
000148 d85e      	RCALL SUBOPT_0xA
000149 81ab      	LDD  R26,Y+3
00014a 81bc      	LDD  R27,Y+3+1
00014b 93ec      	ST   X,R30
                 ;  *p_checksum=baca_SHT(noACK);   //baca checksum (8-bit)
00014c e0a0      	LDI  R26,LOW(0)
00014d dfbc      	RCALL _baca_SHT
00014e 81a9      	LDD  R26,Y+1
00014f 81ba      	LDD  R27,Y+1+1
000150 93ec      	ST   X,R30
                 ;  return error;               //error=1 jika tidak ada respon dari sensor
000151 2fe1      	MOV  R30,R17
000152 8118      	LDD  R17,Y+0
000153 9625      	ADIW R28,5
000154 9508      	RET
                 ;}
                 ;
                 ;//Membaca data hasil pengukuran
                 ;char ukur_SHT(unsigned char *p_checksum, unsigned char mode)
                 ;{
                 _ukur_SHT:
                 ;  unsigned error=0;
                 ; unsigned int temp=0;
                 ;  start_SHT();                   //start transmisi data
000155 93aa      	ST   -Y,R26
000156 dd0d      	RCALL __SAVELOCR4
                 ;	*p_checksum -> Y+5
                 ;	mode -> Y+4
                 ;	error -> R16,R17
                 ;	temp -> R18,R19
                +
000157 e000     +LDI R16 , LOW ( 0 )
000158 e010     +LDI R17 , HIGH ( 0 )
                 	__GETWRN 16,17,0
000159 d84f      	RCALL SUBOPT_0xB
00015a dfc9      	RCALL _start_SHT
                 ;
                 ;  switch(mode){                     //mengirim command ke sensor
00015b d850      	RCALL SUBOPT_0xC
                 ;    case TEMP        : error+=tulis_SHT(UKUR_SUHU); break;
00015c f419      	BRNE _0x54
00015d e0a3      	LDI  R26,LOW(3)
00015e d851      	RCALL SUBOPT_0xD
00015f c004      	RJMP _0x53
                 ;    case HUMI        : error+=tulis_SHT(UKUR_HUMI); break;
                 _0x54:
000160 d854      	RCALL SUBOPT_0xE
000161 f411      	BRNE _0x56
000162 e0a5      	LDI  R26,LOW(5)
000163 d84c      	RCALL SUBOPT_0xD
                 ;    default     : break;
                 _0x56:
                 ;  }
                 _0x53:
                 ;  DDRC.6=0;
000164 98a6      	CBI  0x14,6
                 ; while (1)
                 _0x59:
                 ; {
                 ;   if(DATA_IN==0) break;
000165 9b9a      	SBIS 0x13,2
000166 c001      	RJMP _0x5B
                 ;//tunggu hingga sensor selesai melakukan pengukuran
                 ;  }
000167 cffd      	RJMP _0x59
                 _0x5B:
                 ;  if(DATA_IN) error+=1;
000168 9b9a      	SBIS 0x13,2
000169 c002      	RJMP _0x5D
                +
00016a 5f0f     +SUBI R16 , LOW ( - 1 )
00016b 4f1f     +SBCI R17 , HIGH ( - 1 )
                 	__ADDWRN 16,17,1
                 ;// jika sudah timeout (2 detik)
                 ;
                 ;  switch(mode){                     //mengirim command ke sensor
                 _0x5D:
00016c d83f      	RCALL SUBOPT_0xC
                 ;    case TEMP        : temp=0;
00016d f4b9      	BRNE _0x61
00016e d83a      	RCALL SUBOPT_0xB
                 ;                       temp=baca_SHT(ACK);
00016f d837      	RCALL SUBOPT_0xA
000170 d848      	RCALL SUBOPT_0xF
                 ;                       temp<<=8;
000171 2f32      	MOV  R19,R18
000172 2722      	CLR  R18
                 ;                       nilaisuhu[0]=temp;
                +
000173 9320 0160+STS _nilaisuhu + ( 0 ) , R18
000175 9330 0161+STS _nilaisuhu + ( 0 ) + 1 , R19
                 	__PUTWMRN _nilaisuhu,0,18,19
                 ;                       temp=0;
000177 d831      	RCALL SUBOPT_0xB
                 ;                       temp=baca_SHT(ACK);
000178 d82e      	RCALL SUBOPT_0xA
000179 d83f      	RCALL SUBOPT_0xF
                 ;                       nilaisuhu[0]|=temp;
00017a 01f9      	MOVW R30,R18
00017b 91a0 0160 	LDS  R26,_nilaisuhu
00017d 91b0 0161 	LDS  R27,_nilaisuhu+1
00017f d83c      	RCALL SUBOPT_0x10
000180 93e0 0160 	STS  _nilaisuhu,R30
000182 93f0 0161 	STS  _nilaisuhu+1,R31
                 ;                       break;
000184 c015      	RJMP _0x60
                 ;    case HUMI        : temp=0;
                 _0x61:
000185 d82f      	RCALL SUBOPT_0xE
000186 f499      	BRNE _0x63
000187 d821      	RCALL SUBOPT_0xB
                 ;                       temp=baca_SHT(ACK);
000188 d81e      	RCALL SUBOPT_0xA
000189 d82f      	RCALL SUBOPT_0xF
                 ;                       temp<<=8;
00018a 2f32      	MOV  R19,R18
00018b 2722      	CLR  R18
                 ;                       nilaisuhu[1]=temp;
                +
00018c e6e2     +LDI R30 , LOW ( _nilaisuhu + ( 2 ) )
00018d e0f1     +LDI R31 , HIGH ( _nilaisuhu + ( 2 ) )
                 	__POINTW1MN _nilaisuhu,2
00018e 8320      	ST   Z,R18
00018f 8331      	STD  Z+1,R19
                 ;                       temp=0;
000190 d818      	RCALL SUBOPT_0xB
                 ;                       temp=baca_SHT(ACK);
000191 d815      	RCALL SUBOPT_0xA
000192 d826      	RCALL SUBOPT_0xF
                 ;                       nilaisuhu[1]|=temp;
000193 d82b      	RCALL SUBOPT_0x11
000194 2be2      	OR   R30,R18
000195 2bf3      	OR   R31,R19
                +
000196 93e0 0162+STS _nilaisuhu + ( 2 ) , R30
000198 93f0 0163+STS _nilaisuhu + ( 2 ) + 1 , R31
                 	__PUTW1MN _nilaisuhu,2
                 ;                       break;
                 ;    default     : break;
                 _0x63:
                 ;  }
                 _0x60:
                 ;  *p_checksum =baca_SHT(noACK);  //baca checksum
00019a e0a0      	LDI  R26,LOW(0)
00019b df6e      	RCALL _baca_SHT
00019c 81ad      	LDD  R26,Y+5
00019d 81be      	LDD  R27,Y+5+1
00019e 93ec      	ST   X,R30
                 ;  return error;
00019f 2fe0      	MOV  R30,R16
0001a0 dcca      	RCALL __LOADLOCR4
0001a1 9627      	ADIW R28,7
0001a2 9508      	RET
                 ;}
                 ;
                 ;const float C1=-4.0;
                 
                 	.DSEG
                 ;const float C2=+0.0405;
                 ;const float C3=-0.0000028;
                 ;const float T1=+0.01;
                 ;const float T2=+0.00008;
                 ;
                 ;
                 ;float hitung_SHT(float p_humidity, float *p_temperature)
                 ;{
                 
                 	.CSEG
                 _hitung_SHT:
                 ;  float rh_lin;             // rh_lin:  Kelembaban linear
                 ;  float rh_true;            // rh_true: Suhu untuk kompensasi kelembaban
                 ;  float t_C;                // t_C   :  nilai Suhu
                 ;
                 ;  t_C=*p_temperature*0.01-40;
0001a3 d7ea      	RCALL SUBOPT_0x5
0001a4 972c      	SBIW R28,12
                 ;	p_humidity -> Y+14
                 ;	*p_temperature -> Y+12
                 ;	rh_lin -> Y+8
                 ;	rh_true -> Y+4
                 ;	t_C -> Y+0
0001a5 85ac      	LDD  R26,Y+12
0001a6 85bd      	LDD  R27,Y+12+1
0001a7 dc8f      	RCALL __GETD1P
0001a8 d81b      	RCALL SUBOPT_0x12
0001a9 dae2      	RCALL __MULF12
0001aa d81e      	RCALL SUBOPT_0x13
                +
0001ab e0e0     +LDI R30 , LOW ( 0x42200000 )
0001ac e0f0     +LDI R31 , HIGH ( 0x42200000 )
0001ad e260     +LDI R22 , BYTE3 ( 0x42200000 )
0001ae e472     +LDI R23 , BYTE4 ( 0x42200000 )
                 	__GETD1N 0x42200000
0001af dca1      	RCALL __SWAPD12
0001b0 da84      	RCALL __SUBF12
0001b1 dc95      	RCALL __PUTD1S0
                 ;//mengubah nilai Suhu menjadi derajat Celcius [C]
                 ;  rh_lin=C3*(p_humidity)*(p_humidity) + C2*(p_humidity) + C1;
0001b2 d819      	RCALL SUBOPT_0x14
                +
0001b3 eaa2     +LDI R26 , LOW ( 0xB63BE7A2 )
0001b4 eeb7     +LDI R27 , HIGH ( 0xB63BE7A2 )
0001b5 e38b     +LDI R24 , BYTE3 ( 0xB63BE7A2 )
0001b6 eb96     +LDI R25 , BYTE4 ( 0xB63BE7A2 )
                 	__GETD2N 0xB63BE7A2
0001b7 dad4      	RCALL __MULF12
                +
0001b8 85ae     +LDD R26 , Y + 14
0001b9 85bf     +LDD R27 , Y + 14 + 1
0001ba 8988     +LDD R24 , Y + 14 + 2
0001bb 8999     +LDD R25 , Y + 14 + 3
                 	__GETD2S 14
0001bc dacf      	RCALL __MULF12
0001bd 937f      	PUSH R23
0001be 936f      	PUSH R22
0001bf 93ff      	PUSH R31
0001c0 93ef      	PUSH R30
0001c1 d80a      	RCALL SUBOPT_0x14
                +
0001c2 e5a4     +LDI R26 , LOW ( 0x3D25E354 )
0001c3 eeb3     +LDI R27 , HIGH ( 0x3D25E354 )
0001c4 e285     +LDI R24 , BYTE3 ( 0x3D25E354 )
0001c5 e39d     +LDI R25 , BYTE4 ( 0x3D25E354 )
                 	__GETD2N 0x3D25E354
0001c6 dac5      	RCALL __MULF12
0001c7 91af      	POP  R26
0001c8 91bf      	POP  R27
0001c9 918f      	POP  R24
0001ca 919f      	POP  R25
0001cb da70      	RCALL __ADDF12
                +
0001cc e0a0     +LDI R26 , LOW ( 0xC0800000 )
0001cd e0b0     +LDI R27 , HIGH ( 0xC0800000 )
0001ce e880     +LDI R24 , BYTE3 ( 0xC0800000 )
0001cf ec90     +LDI R25 , BYTE4 ( 0xC0800000 )
                 	__GETD2N 0xC0800000
0001d0 da6b      	RCALL __ADDF12
0001d1 d7ff      	RCALL SUBOPT_0x15
                 ;//mengubah nilai kelembaban dalam % [%RH]
                 ;  rh_true=(t_C-25)*(T1+T2*(p_humidity))+rh_lin;
0001d2 d803      	RCALL SUBOPT_0x16
                +
0001d3 e0a0     +LDI R26 , LOW ( 0x41C80000 )
0001d4 e0b0     +LDI R27 , HIGH ( 0x41C80000 )
0001d5 ec88     +LDI R24 , BYTE3 ( 0x41C80000 )
0001d6 e491     +LDI R25 , BYTE4 ( 0x41C80000 )
                 	__GETD2N 0x41C80000
0001d7 da5d      	RCALL __SUBF12
0001d8 937f      	PUSH R23
0001d9 936f      	PUSH R22
0001da 93ff      	PUSH R31
0001db 93ef      	PUSH R30
0001dc d7ef      	RCALL SUBOPT_0x14
                +
0001dd eaac     +LDI R26 , LOW ( 0x38A7C5AC )
0001de ecb5     +LDI R27 , HIGH ( 0x38A7C5AC )
0001df ea87     +LDI R24 , BYTE3 ( 0x38A7C5AC )
0001e0 e398     +LDI R25 , BYTE4 ( 0x38A7C5AC )
                 	__GETD2N 0x38A7C5AC
0001e1 daaa      	RCALL __MULF12
0001e2 d7e1      	RCALL SUBOPT_0x12
0001e3 da58      	RCALL __ADDF12
0001e4 91af      	POP  R26
0001e5 91bf      	POP  R27
0001e6 918f      	POP  R24
0001e7 919f      	POP  R25
0001e8 daa3      	RCALL __MULF12
0001e9 d7ee      	RCALL SUBOPT_0x17
0001ea da51      	RCALL __ADDF12
0001eb d7f1      	RCALL SUBOPT_0x18
                 ;//mengkompensasikan nilai suhu dan kelembaban[%RH]
                 ;  if(rh_true>100)rh_true=100;
0001ec d7f5      	RCALL SUBOPT_0x19
0001ed d7f9      	RCALL SUBOPT_0x1A
0001ee db30      	RCALL __CMPF12
0001ef f009      	BREQ PC+2
0001f0 f408      	BRCC PC+2
0001f1 c002      	RJMP _0x69
0001f2 d7f4      	RCALL SUBOPT_0x1A
0001f3 d7e9      	RCALL SUBOPT_0x18
                 ;  if(rh_true<0.1)rh_true=0.1;
                 _0x69:
0001f4 d7ed      	RCALL SUBOPT_0x19
0001f5 d7f6      	RCALL SUBOPT_0x1B
0001f6 db28      	RCALL __CMPF12
0001f7 f410      	BRSH _0x6A
0001f8 d7f3      	RCALL SUBOPT_0x1B
0001f9 d7e3      	RCALL SUBOPT_0x18
                 ;
                 ;  *p_temperature=t_C;
                 _0x6A:
0001fa d7db      	RCALL SUBOPT_0x16
0001fb 85ac      	LDD  R26,Y+12
0001fc 85bd      	LDD  R27,Y+12+1
0001fd d7f3      	RCALL SUBOPT_0x1C
                 ;   return rh_true;
0001fe 9662      	ADIW R28,18
0001ff 9508      	RET
                 ;}
                 ;
                 ;
                 ;void baca_sht11(float *data_humi,float *data_temp){
                 _baca_sht11:
                 ;value humi_val,temp_val;
                 ;unsigned char error,checksum,inp;
                 ;reset_SHT();
000200 d78d      	RCALL SUBOPT_0x5
000201 9728      	SBIW R28,8
000202 dc61      	RCALL __SAVELOCR4
                 ;	*data_humi -> Y+14
                 ;	*data_temp -> Y+12
                 ;	humi_val -> Y+8
                 ;	temp_val -> Y+4
                 ;	error -> R17
                 ;	checksum -> R16
                 ;	inp -> R19
000203 df2e      	RCALL _reset_SHT
                 ;error=0;
000204 e010      	LDI  R17,LOW(0)
                 ;      error+=ukur_SHT(&checksum,HUMI);  //mengukur kelembaban
000205 b7ed      	IN   R30,SPL
000206 b7fe      	IN   R31,SPH
000207 d7ef      	RCALL SUBOPT_0x1D
000208 930f      	PUSH R16
000209 e0a1      	LDI  R26,LOW(1)
00020a df4a      	RCALL _ukur_SHT
00020b 910f      	POP  R16
00020c 0f1e      	ADD  R17,R30
                 ;      error+=ukur_SHT(&checksum,TEMP);  //mengukur suhu
00020d b7ed      	IN   R30,SPL
00020e b7fe      	IN   R31,SPH
00020f d7e7      	RCALL SUBOPT_0x1D
000210 930f      	PUSH R16
000211 e0a0      	LDI  R26,LOW(0)
000212 df42      	RCALL _ukur_SHT
000213 910f      	POP  R16
000214 0f1e      	ADD  R17,R30
                 ;      error += StatusReg_SHT(&inp, &checksum);
000215 b7ed      	IN   R30,SPL
000216 b7fe      	IN   R31,SPH
000217 d7df      	RCALL SUBOPT_0x1D
000218 933f      	PUSH R19
000219 b7ad      	IN   R26,SPL
00021a b7be      	IN   R27,SPH
00021b 930f      	PUSH R16
00021c df24      	RCALL _StatusReg_SHT
00021d 910f      	POP  R16
00021e 913f      	POP  R19
00021f 0f1e      	ADD  R17,R30
                 ;      if(error!=0)
000220 3010      	CPI  R17,0
000221 f011      	BREQ _0x6B
                 ;       {
                 ;       reset_SHT();                 //jika ada error, reset koneksi
000222 df0f      	RCALL _reset_SHT
                 ;       }
                 ;      else
000223 c00f      	RJMP _0x6C
                 _0x6B:
                 ;       {
                 ;       humi_val.f=(float)nilaisuhu[1];
000224 d79a      	RCALL SUBOPT_0x11
000225 d7d4      	RCALL SUBOPT_0x1E
000226 d7aa      	RCALL SUBOPT_0x15
                 ;//mengubah integer menjadi float
                 ;       temp_val.f=(float)nilaisuhu[0];
000227 91e0 0160 	LDS  R30,_nilaisuhu
000229 91f0 0161 	LDS  R31,_nilaisuhu+1
00022b d7ce      	RCALL SUBOPT_0x1E
00022c d7b0      	RCALL SUBOPT_0x18
                 ;       humi_val.f=hitung_SHT(humi_val.f,&temp_val.f);
00022d d7d0      	RCALL SUBOPT_0x1F
00022e dc1d      	RCALL __PUTPARD1
00022f 01de      	MOVW R26,R28
000230 9618      	ADIW R26,8
000231 df71      	RCALL _hitung_SHT
000232 d79e      	RCALL SUBOPT_0x15
                 ;       }
                 _0x6C:
                 ;       *data_humi=humi_val.f;
000233 d7ca      	RCALL SUBOPT_0x1F
000234 85ae      	LDD  R26,Y+14
000235 85bf      	LDD  R27,Y+14+1
000236 d7ba      	RCALL SUBOPT_0x1C
                 ;       *data_temp=temp_val.f;
000237 85ac      	LDD  R26,Y+12
000238 85bd      	LDD  R27,Y+12+1
000239 dc03      	RCALL __PUTDP1
                 ;}
00023a dc30      	RCALL __LOADLOCR4
00023b 9660      	ADIW R28,16
00023c 9508      	RET
                 ;#include <bmp085.c>
                 ;#include <i2c.h>
                 ;
                 ;int ac1,ac2,ac3,b1,b2,mb,mc,md;
                 ;unsigned int ac4,ac5,ac6;
                 ;long int x1,x2,b5,b3,x3,b6,b7;
                 ;unsigned long int b4;
                 ;long int up;
                 ;long int ut;
                 ;
                 ;long pressure;
                 ;
                 ;int ac1_hi,ac1_lo;
                 ;int ac2_hi,ac2_lo;
                 ;int ac3_hi,ac3_lo;
                 ;int ac4_hi,ac4_lo;
                 ;int ac5_hi,ac5_lo;
                 ;int ac6_hi,ac6_lo;
                 ;int b1_hi,b1_lo;
                 ;int b2_hi,b2_lo;
                 ;int mb_hi,mb_lo;
                 ;int mc_hi,mc_lo;
                 ;int md_hi,md_lo;
                 ;
                 ;
                 ;void read_calibration_bmp085(){
                 ; 0000 000A void read_calibration_bmp085(){
                 _read_calibration_bmp085:
                 ;i2c_start();
00023d d7c5      	RCALL SUBOPT_0x20
                 ;i2c_write(0xee);
                 ;i2c_write(0xaa);
00023e eaaa      	LDI  R26,LOW(170)
00023f d7c6      	RCALL SUBOPT_0x21
                 ;i2c_start();
                 ;i2c_write(0xef);
                 ;
                 ;ac1_hi=i2c_read(1);
000240 d7cb      	RCALL SUBOPT_0x22
000241 93e0 019c 	STS  _ac1_hi,R30
000243 93f0 019d 	STS  _ac1_hi+1,R31
                 ;ac1_lo=i2c_read(1);
000245 d7c8      	RCALL SUBOPT_0x23
000246 93e0 019e 	STS  _ac1_lo,R30
000248 93f0 019f 	STS  _ac1_lo+1,R31
                 ;
                 ;ac2_hi=i2c_read(1);
00024a d7c3      	RCALL SUBOPT_0x23
00024b 93e0 01a0 	STS  _ac2_hi,R30
00024d 93f0 01a1 	STS  _ac2_hi+1,R31
                 ;ac2_lo=i2c_read(1);
00024f d7be      	RCALL SUBOPT_0x23
000250 93e0 01a2 	STS  _ac2_lo,R30
000252 93f0 01a3 	STS  _ac2_lo+1,R31
                 ;
                 ;ac3_hi=i2c_read(1);
000254 d7b9      	RCALL SUBOPT_0x23
000255 93e0 01a4 	STS  _ac3_hi,R30
000257 93f0 01a5 	STS  _ac3_hi+1,R31
                 ;ac3_lo=i2c_read(1);
000259 d7b4      	RCALL SUBOPT_0x23
00025a 93e0 01a6 	STS  _ac3_lo,R30
00025c 93f0 01a7 	STS  _ac3_lo+1,R31
                 ;
                 ;ac4_hi=i2c_read(1);
00025e d7af      	RCALL SUBOPT_0x23
00025f 93e0 01a8 	STS  _ac4_hi,R30
000261 93f0 01a9 	STS  _ac4_hi+1,R31
                 ;ac4_lo=i2c_read(1);
000263 d7aa      	RCALL SUBOPT_0x23
000264 93e0 01aa 	STS  _ac4_lo,R30
000266 93f0 01ab 	STS  _ac4_lo+1,R31
                 ;
                 ;ac5_hi=i2c_read(1);
000268 d7a5      	RCALL SUBOPT_0x23
000269 93e0 01ac 	STS  _ac5_hi,R30
00026b 93f0 01ad 	STS  _ac5_hi+1,R31
                 ;ac5_lo=i2c_read(1);
00026d d7a0      	RCALL SUBOPT_0x23
00026e 93e0 01ae 	STS  _ac5_lo,R30
000270 93f0 01af 	STS  _ac5_lo+1,R31
                 ;
                 ;ac6_hi=i2c_read(1);
000272 d79b      	RCALL SUBOPT_0x23
000273 93e0 01b0 	STS  _ac6_hi,R30
000275 93f0 01b1 	STS  _ac6_hi+1,R31
                 ;ac6_lo=i2c_read(1);
000277 d796      	RCALL SUBOPT_0x23
000278 93e0 01b2 	STS  _ac6_lo,R30
00027a 93f0 01b3 	STS  _ac6_lo+1,R31
                 ;
                 ;b1_hi=i2c_read(1);
00027c d791      	RCALL SUBOPT_0x23
00027d 93e0 01b4 	STS  _b1_hi,R30
00027f 93f0 01b5 	STS  _b1_hi+1,R31
                 ;b1_lo=i2c_read(1);
000281 d78c      	RCALL SUBOPT_0x23
000282 93e0 01b6 	STS  _b1_lo,R30
000284 93f0 01b7 	STS  _b1_lo+1,R31
                 ;
                 ;b2_hi=i2c_read(1);
000286 d787      	RCALL SUBOPT_0x23
000287 93e0 01b8 	STS  _b2_hi,R30
000289 93f0 01b9 	STS  _b2_hi+1,R31
                 ;b2_lo=i2c_read(1);
00028b d782      	RCALL SUBOPT_0x23
00028c 93e0 01ba 	STS  _b2_lo,R30
00028e 93f0 01bb 	STS  _b2_lo+1,R31
                 ;
                 ;mb_hi=i2c_read(1);
000290 d77d      	RCALL SUBOPT_0x23
000291 93e0 01bc 	STS  _mb_hi,R30
000293 93f0 01bd 	STS  _mb_hi+1,R31
                 ;mb_lo=i2c_read(1);
000295 d778      	RCALL SUBOPT_0x23
000296 93e0 01be 	STS  _mb_lo,R30
000298 93f0 01bf 	STS  _mb_lo+1,R31
                 ;
                 ;mc_hi=i2c_read(1);
00029a d773      	RCALL SUBOPT_0x23
00029b 93e0 01c0 	STS  _mc_hi,R30
00029d 93f0 01c1 	STS  _mc_hi+1,R31
                 ;mc_lo=i2c_read(1);
00029f d76e      	RCALL SUBOPT_0x23
0002a0 93e0 01c2 	STS  _mc_lo,R30
0002a2 93f0 01c3 	STS  _mc_lo+1,R31
                 ;
                 ;md_hi=i2c_read(1);
0002a4 d769      	RCALL SUBOPT_0x23
0002a5 93e0 01c4 	STS  _md_hi,R30
0002a7 93f0 01c5 	STS  _md_hi+1,R31
                 ;md_lo=i2c_read(0);
0002a9 e0a0      	LDI  R26,LOW(0)
0002aa d8b4      	RCALL _i2c_read
0002ab d760      	RCALL SUBOPT_0x22
0002ac 93e0 01c6 	STS  _md_lo,R30
0002ae 93f0 01c7 	STS  _md_lo+1,R31
                 ;
                 ;i2c_stop();
0002b0 d8a4      	RCALL _i2c_stop
                 ;
                 ;ac1=ac1_hi<<8 | ac1_lo;
0002b1 91f0 019c 	LDS  R31,_ac1_hi
0002b3 e0e0      	LDI  R30,LOW(0)
0002b4 91a0 019e 	LDS  R26,_ac1_lo
0002b6 91b0 019f 	LDS  R27,_ac1_lo+1
0002b8 d703      	RCALL SUBOPT_0x10
0002b9 012f      	MOVW R4,R30
                 ;ac2=ac2_hi<<8 | ac2_lo;
0002ba 91f0 01a0 	LDS  R31,_ac2_hi
0002bc e0e0      	LDI  R30,LOW(0)
0002bd 91a0 01a2 	LDS  R26,_ac2_lo
0002bf 91b0 01a3 	LDS  R27,_ac2_lo+1
0002c1 d6fa      	RCALL SUBOPT_0x10
0002c2 013f      	MOVW R6,R30
                 ;ac3=ac3_hi<<8 | ac3_lo;
0002c3 91f0 01a4 	LDS  R31,_ac3_hi
0002c5 e0e0      	LDI  R30,LOW(0)
0002c6 91a0 01a6 	LDS  R26,_ac3_lo
0002c8 91b0 01a7 	LDS  R27,_ac3_lo+1
0002ca d6f1      	RCALL SUBOPT_0x10
0002cb 014f      	MOVW R8,R30
                 ;ac4=ac4_hi<<8 | ac4_lo;
0002cc 91f0 01a8 	LDS  R31,_ac4_hi
0002ce e0e0      	LDI  R30,LOW(0)
0002cf 91a0 01aa 	LDS  R26,_ac4_lo
0002d1 91b0 01ab 	LDS  R27,_ac4_lo+1
0002d3 d6e8      	RCALL SUBOPT_0x10
0002d4 93e0 016a 	STS  _ac4,R30
0002d6 93f0 016b 	STS  _ac4+1,R31
                 ;ac5=ac5_hi<<8 | ac5_lo;
0002d8 91f0 01ac 	LDS  R31,_ac5_hi
0002da e0e0      	LDI  R30,LOW(0)
0002db 91a0 01ae 	LDS  R26,_ac5_lo
0002dd 91b0 01af 	LDS  R27,_ac5_lo+1
0002df d6dc      	RCALL SUBOPT_0x10
0002e0 93e0 016c 	STS  _ac5,R30
0002e2 93f0 016d 	STS  _ac5+1,R31
                 ;ac6=ac6_hi<<8 | ac6_lo;
0002e4 91f0 01b0 	LDS  R31,_ac6_hi
0002e6 e0e0      	LDI  R30,LOW(0)
0002e7 91a0 01b2 	LDS  R26,_ac6_lo
0002e9 91b0 01b3 	LDS  R27,_ac6_lo+1
0002eb d6d0      	RCALL SUBOPT_0x10
0002ec 93e0 016e 	STS  _ac6,R30
0002ee 93f0 016f 	STS  _ac6+1,R31
                 ;
                 ;b1=b1_hi<<8 | b1_lo;
0002f0 91f0 01b4 	LDS  R31,_b1_hi
0002f2 e0e0      	LDI  R30,LOW(0)
0002f3 91a0 01b6 	LDS  R26,_b1_lo
0002f5 91b0 01b7 	LDS  R27,_b1_lo+1
0002f7 d6c4      	RCALL SUBOPT_0x10
0002f8 015f      	MOVW R10,R30
                 ;b2=b2_hi<<8 | b2_lo;
0002f9 91f0 01b8 	LDS  R31,_b2_hi
0002fb e0e0      	LDI  R30,LOW(0)
0002fc 91a0 01ba 	LDS  R26,_b2_lo
0002fe 91b0 01bb 	LDS  R27,_b2_lo+1
000300 d6bb      	RCALL SUBOPT_0x10
000301 016f      	MOVW R12,R30
                 ;
                 ;mb=mb_hi<<8 | mb_lo;
000302 91f0 01bc 	LDS  R31,_mb_hi
000304 e0e0      	LDI  R30,LOW(0)
000305 91a0 01be 	LDS  R26,_mb_lo
000307 91b0 01bf 	LDS  R27,_mb_lo+1
000309 d6b2      	RCALL SUBOPT_0x10
00030a 93e0 0164 	STS  _mb,R30
00030c 93f0 0165 	STS  _mb+1,R31
                 ;mc=mc_hi<<8 | mc_lo;
00030e 91f0 01c0 	LDS  R31,_mc_hi
000310 e0e0      	LDI  R30,LOW(0)
000311 91a0 01c2 	LDS  R26,_mc_lo
000313 91b0 01c3 	LDS  R27,_mc_lo+1
000315 d6a6      	RCALL SUBOPT_0x10
000316 93e0 0166 	STS  _mc,R30
000318 93f0 0167 	STS  _mc+1,R31
                 ;md=md_hi<<8 | md_lo;
00031a 91f0 01c4 	LDS  R31,_md_hi
00031c e0e0      	LDI  R30,LOW(0)
00031d 91a0 01c6 	LDS  R26,_md_lo
00031f 91b0 01c7 	LDS  R27,_md_lo+1
000321 d69a      	RCALL SUBOPT_0x10
000322 93e0 0168 	STS  _md,R30
000324 93f0 0169 	STS  _md+1,R31
                 ;//printf("ac1= %d ac2= %d ac3= %d ac4= %u ac5= %u ac6= %u b1= %d b2= %d mb= %d mc= %d md= %d\r\n",ac1,ac2,ac3,ac4,ac5,ac6,b1,b2,mb,mc,md);
                 ;}
000326 9508      	RET
                 ;
                 ;void read_uncompensated_temp(){
                 _read_uncompensated_temp:
                 ;char temp_value_hi,temp_value_lo;
                 ;i2c_start();
000327 db3e      	RCALL __SAVELOCR2
                 ;	temp_value_hi -> R17
                 ;	temp_value_lo -> R16
000328 d6da      	RCALL SUBOPT_0x20
                 ;i2c_write(0xee);
                 ;i2c_write(0xf4);
000329 efa4      	LDI  R26,LOW(244)
00032a d84f      	RCALL _i2c_write
                 ;i2c_write(0x2e);
00032b e2ae      	LDI  R26,LOW(46)
00032c d6e4      	RCALL SUBOPT_0x24
                 ;i2c_stop();
                 ;
                 ;delay_ms(5);
                 ;
                 ;i2c_start();
                 ;i2c_write(0xee);
                 ;i2c_write(0xf6);
00032d efa6      	LDI  R26,LOW(246)
00032e d6d7      	RCALL SUBOPT_0x21
                 ;i2c_start();
                 ;i2c_write(0xef);
                 ;temp_value_hi=i2c_read(1);
00032f d6e7      	RCALL SUBOPT_0x25
                 ;temp_value_lo=i2c_read(0);
                 ;i2c_stop();
                 ;
                 ;ut =(long int) temp_value_hi <<8 | (long)temp_value_lo;
000330 93e0 0194 	STS  _ut,R30
000332 93f0 0195 	STS  _ut+1,R31
000334 9360 0196 	STS  _ut+2,R22
000336 9370 0197 	STS  _ut+3,R23
                 ;
                 ;x1 = ((long)ut - ac6) * ac5 >> 15;
000338 91e0 016e 	LDS  R30,_ac6
00033a 91f0 016f 	LDS  R31,_ac6+1
00033c 91a0 0194 	LDS  R26,_ut
00033e 91b0 0195 	LDS  R27,_ut+1
000340 9180 0196 	LDS  R24,_ut+2
000342 9190 0197 	LDS  R25,_ut+3
000344 d6e3      	RCALL SUBOPT_0x26
000345 da0c      	RCALL __SUBD21
000346 91e0 016c 	LDS  R30,_ac5
000348 91f0 016d 	LDS  R31,_ac5+1
00034a d6dd      	RCALL SUBOPT_0x26
00034b d6df      	RCALL SUBOPT_0x27
00034c e0ef      	LDI  R30,LOW(15)
00034d d6df      	RCALL SUBOPT_0x28
                 ;x2 = ((long)mc << 11) / (x1 + md);
00034e 91a0 0166 	LDS  R26,_mc
000350 91b0 0167 	LDS  R27,_mc+1
000352 d6e4      	RCALL SUBOPT_0x29
000353 e0eb      	LDI  R30,LOW(11)
000354 da13      	RCALL __LSLD12
000355 937f      	PUSH R23
000356 936f      	PUSH R22
000357 93ff      	PUSH R31
000358 93ef      	PUSH R30
000359 91e0 0168 	LDS  R30,_md
00035b 91f0 0169 	LDS  R31,_md+1
00035d d6db      	RCALL SUBOPT_0x2A
00035e d6e3      	RCALL SUBOPT_0x2B
00035f d9e3      	RCALL __ADDD12
000360 91af      	POP  R26
000361 91bf      	POP  R27
000362 918f      	POP  R24
000363 919f      	POP  R25
000364 daa4      	RCALL __DIVD21
000365 d6de      	RCALL SUBOPT_0x2C
                 ;b5 = x1 + x2;
000366 93e0 0178 	STS  _b5,R30
000368 93f0 0179 	STS  _b5+1,R31
00036a 9360 017a 	STS  _b5+2,R22
00036c 9370 017b 	STS  _b5+3,R23
                 ;}
00036e db01      	RCALL __LOADLOCR2P
00036f 9508      	RET
                 ;
                 ;void read_uncompensated_pressure(){
                 _read_uncompensated_pressure:
                 ;char pres_value_hi,pres_value_lo;
                 ;long p;
                 ;
                 ;i2c_start();
000370 9724      	SBIW R28,4
000371 daf4      	RCALL __SAVELOCR2
                 ;	pres_value_hi -> R17
                 ;	pres_value_lo -> R16
                 ;	p -> Y+2
000372 d690      	RCALL SUBOPT_0x20
                 ;i2c_write(0xee);
                 ;i2c_write(0xf4);
000373 efa4      	LDI  R26,LOW(244)
000374 d805      	RCALL _i2c_write
                 ;i2c_write(0x34);
000375 e3a4      	LDI  R26,LOW(52)
000376 d69a      	RCALL SUBOPT_0x24
                 ;i2c_stop();
                 ;
                 ;delay_ms(5);
                 ;
                 ;i2c_start();
                 ;i2c_write(0xee);
                 ;i2c_write(0xf6);
000377 efa6      	LDI  R26,LOW(246)
000378 d68d      	RCALL SUBOPT_0x21
                 ;i2c_start();
                 ;i2c_write(0xef);
                 ;pres_value_hi=i2c_read(1); //f6
000379 d69d      	RCALL SUBOPT_0x25
                 ;pres_value_lo=i2c_read(0); //f7
                 ;i2c_stop();
                 ;
                 ;up= (long)pres_value_hi <<8 | (long)pres_value_lo; // | (long)pres_value_x)>>8;
00037a 93e0 0190 	STS  _up,R30
00037c 93f0 0191 	STS  _up+1,R31
00037e 9360 0192 	STS  _up+2,R22
000380 9370 0193 	STS  _up+3,R23
                 ;	b6 = b5 - 4000;
000382 91e0 0178 	LDS  R30,_b5
000384 91f0 0179 	LDS  R31,_b5+1
000386 9160 017a 	LDS  R22,_b5+2
000388 9170 017b 	LDS  R23,_b5+3
                +
00038a 5ae0     +SUBI R30 , LOW ( 4000 )
00038b 40ff     +SBCI R31 , HIGH ( 4000 )
00038c 4060     +SBCI R22 , BYTE3 ( 4000 )
00038d 4070     +SBCI R23 , BYTE4 ( 4000 )
                 	__SUBD1N 4000
00038e 93e0 0184 	STS  _b6,R30
000390 93f0 0185 	STS  _b6+1,R31
000392 9360 0186 	STS  _b6+2,R22
000394 9370 0187 	STS  _b6+3,R23
                 ;	x1 = (b2* (b6 * b6) >> 12) >> 11;
000396 d6b8      	RCALL SUBOPT_0x2D
000397 d6c0      	RCALL SUBOPT_0x2E
000398 da2e      	RCALL __MULD12
000399 01d6      	MOVW R26,R12
00039a d69c      	RCALL SUBOPT_0x29
00039b d68f      	RCALL SUBOPT_0x27
00039c e0ec      	LDI  R30,LOW(12)
00039d d9d6      	RCALL __ASRD12
00039e d62a      	RCALL SUBOPT_0x13
00039f e0eb      	LDI  R30,LOW(11)
0003a0 d68c      	RCALL SUBOPT_0x28
                 ;	x2 = (ac2 * b6) >> 11;
0003a1 d6ad      	RCALL SUBOPT_0x2D
0003a2 01d3      	MOVW R26,R6
0003a3 d693      	RCALL SUBOPT_0x29
0003a4 d686      	RCALL SUBOPT_0x27
0003a5 e0eb      	LDI  R30,LOW(11)
0003a6 d9cd      	RCALL __ASRD12
0003a7 d69c      	RCALL SUBOPT_0x2C
                 ;	x3 = x1 + x2;
0003a8 d6b8      	RCALL SUBOPT_0x2F
                 ;	b3 = (((((long)ac1) * 4 + x3) << 0) + 2) >> 2;
0003a9 01d2      	MOVW R26,R4
0003aa d68c      	RCALL SUBOPT_0x29
                +
0003ab e0e4     +LDI R30 , LOW ( 0x4 )
0003ac e0f0     +LDI R31 , HIGH ( 0x4 )
0003ad e060     +LDI R22 , BYTE3 ( 0x4 )
0003ae e070     +LDI R23 , BYTE4 ( 0x4 )
                 	__GETD1N 0x4
0003af da17      	RCALL __MULD12
0003b0 91a0 0180 	LDS  R26,_x3
0003b2 91b0 0181 	LDS  R27,_x3+1
0003b4 9180 0182 	LDS  R24,_x3+2
0003b6 9190 0183 	LDS  R25,_x3+3
0003b8 d98f      	RCALL __ADDD21
0003b9 01fd      	MOVW R30,R26
0003ba 01bc      	MOVW R22,R24
0003bb d6ae      	RCALL SUBOPT_0x30
0003bc 93e0 017c 	STS  _b3,R30
0003be 93f0 017d 	STS  _b3+1,R31
0003c0 9360 017e 	STS  _b3+2,R22
0003c2 9370 017f 	STS  _b3+3,R23
                 ;	x1 = (ac3 * b6) >> 13;
0003c4 d68a      	RCALL SUBOPT_0x2D
0003c5 01d4      	MOVW R26,R8
0003c6 d670      	RCALL SUBOPT_0x29
0003c7 d663      	RCALL SUBOPT_0x27
0003c8 e0ed      	LDI  R30,LOW(13)
0003c9 d663      	RCALL SUBOPT_0x28
                 ;	x2 = (b1 * ((b6 * b6) >> 12)) >> 16;
0003ca d684      	RCALL SUBOPT_0x2D
0003cb d68c      	RCALL SUBOPT_0x2E
0003cc d65e      	RCALL SUBOPT_0x27
0003cd e0ec      	LDI  R30,LOW(12)
0003ce d9a5      	RCALL __ASRD12
0003cf 01d5      	MOVW R26,R10
0003d0 d666      	RCALL SUBOPT_0x29
0003d1 d9f5      	RCALL __MULD12
0003d2 d9c3      	RCALL __ASRD16
0003d3 d670      	RCALL SUBOPT_0x2C
                 ;	x3 = ((x1 + x2) + 2) >> 2;
0003d4 d695      	RCALL SUBOPT_0x30
0003d5 d68b      	RCALL SUBOPT_0x2F
                 ;	b4 = (ac4 * (unsigned long)(x3 + 32768)) >> 15;
0003d6 91e0 0180 	LDS  R30,_x3
0003d8 91f0 0181 	LDS  R31,_x3+1
0003da 9160 0182 	LDS  R22,_x3+2
0003dc 9170 0183 	LDS  R23,_x3+3
                +
0003de 50e0     +SUBI R30 , LOW ( - 32768 )
0003df 48f0     +SBCI R31 , HIGH ( - 32768 )
0003e0 4f6f     +SBCI R22 , BYTE3 ( - 32768 )
0003e1 4f7f     +SBCI R23 , BYTE4 ( - 32768 )
                 	__ADDD1N 32768
0003e2 91a0 016a 	LDS  R26,_ac4
0003e4 91b0 016b 	LDS  R27,_ac4+1
0003e6 2788      	CLR  R24
0003e7 2799      	CLR  R25
0003e8 d9be      	RCALL __MULD12U
0003e9 d5df      	RCALL SUBOPT_0x13
0003ea e0ef      	LDI  R30,LOW(15)
0003eb d994      	RCALL __LSRD12
0003ec 93e0 018c 	STS  _b4,R30
0003ee 93f0 018d 	STS  _b4+1,R31
0003f0 9360 018e 	STS  _b4+2,R22
0003f2 9370 018f 	STS  _b4+3,R23
                 ;	b7 = ((unsigned long)up - b3) * (50000 >> 0);
0003f4 91a0 017c 	LDS  R26,_b3
0003f6 91b0 017d 	LDS  R27,_b3+1
0003f8 9180 017e 	LDS  R24,_b3+2
0003fa 9190 017f 	LDS  R25,_b3+3
0003fc 91e0 0190 	LDS  R30,_up
0003fe 91f0 0191 	LDS  R31,_up+1
000400 9160 0192 	LDS  R22,_up+2
000402 9170 0193 	LDS  R23,_up+3
000404 d948      	RCALL __SUBD12
                +
000405 e5a0     +LDI R26 , LOW ( 0xC350 )
000406 ecb3     +LDI R27 , HIGH ( 0xC350 )
000407 e080     +LDI R24 , BYTE3 ( 0xC350 )
000408 e090     +LDI R25 , BYTE4 ( 0xC350 )
                 	__GETD2N 0xC350
000409 d99d      	RCALL __MULD12U
00040a 93e0 0188 	STS  _b7,R30
00040c 93f0 0189 	STS  _b7+1,R31
00040e 9360 018a 	STS  _b7+2,R22
000410 9370 018b 	STS  _b7+3,R23
                 ;	p = b7 < 0x80000000 ? (b7 << 1) / b4 : (b7 / b4) << 1;
000412 d65e      	RCALL SUBOPT_0x31
                +
000413 30a0     +CPI R26 , LOW ( 0x80000000 )
000414 e0e0     +LDI R30 , HIGH ( 0x80000000 )
000415 07be     +CPC R27 , R30
000416 e0e0     +LDI R30 , BYTE3 ( 0x80000000 )
000417 078e     +CPC R24 , R30
000418 e8e0     +LDI R30 , BYTE4 ( 0x80000000 )
000419 079e     +CPC R25 , R30
                 	__CPD2N 0x80000000
00041a f470      	BRSH _0x6D
00041b 91e0 0188 	LDS  R30,_b7
00041d 91f0 0189 	LDS  R31,_b7+1
00041f 9160 018a 	LDS  R22,_b7+2
000421 9170 018b 	LDS  R23,_b7+3
000423 d96d      	RCALL __LSLD1
000424 01df      	MOVW R26,R30
000425 01cb      	MOVW R24,R22
000426 d653      	RCALL SUBOPT_0x32
000427 d9bc      	RCALL __DIVD21U
000428 c004      	RJMP _0x6E
                 _0x6D:
000429 d650      	RCALL SUBOPT_0x32
00042a d646      	RCALL SUBOPT_0x31
00042b d9b8      	RCALL __DIVD21U
00042c d964      	RCALL __LSLD1
                 _0x6E:
                +
00042d 83ea     +STD Y + 2 , R30
00042e 83fb     +STD Y + 2 + 1 , R31
00042f 836c     +STD Y + 2 + 2 , R22
000430 837d     +STD Y + 2 + 3 , R23
                 	__PUTD1S 2
                 ;	x1 = (p >> 8) * (p >> 8);
000431 d651      	RCALL SUBOPT_0x33
000432 937f      	PUSH R23
000433 936f      	PUSH R22
000434 93ff      	PUSH R31
000435 93ef      	PUSH R30
000436 d64c      	RCALL SUBOPT_0x33
000437 91af      	POP  R26
000438 91bf      	POP  R27
000439 918f      	POP  R24
00043a 919f      	POP  R25
00043b d98b      	RCALL __MULD12
00043c d64d      	RCALL SUBOPT_0x34
                 ;	x1 = (x1 * 3038) >> 16;
00043d 91e0 0170 	LDS  R30,_x1
00043f 91f0 0171 	LDS  R31,_x1+1
000441 9160 0172 	LDS  R22,_x1+2
000443 9170 0173 	LDS  R23,_x1+3
                +
000445 edae     +LDI R26 , LOW ( 0xBDE )
000446 e0bb     +LDI R27 , HIGH ( 0xBDE )
000447 e080     +LDI R24 , BYTE3 ( 0xBDE )
000448 e090     +LDI R25 , BYTE4 ( 0xBDE )
                 	__GETD2N 0xBDE
000449 d97d      	RCALL __MULD12
00044a d94b      	RCALL __ASRD16
00044b d63e      	RCALL SUBOPT_0x34
                 ;	x2 = (-7357 * p) >> 16;
                +
00044c 81ea     +LDD R30 , Y + 2
00044d 81fb     +LDD R31 , Y + 2 + 1
00044e 816c     +LDD R22 , Y + 2 + 2
00044f 817d     +LDD R23 , Y + 2 + 3
                 	__GETD1S 2
                +
000450 e4a3     +LDI R26 , LOW ( 0xFFFFE343 )
000451 eeb3     +LDI R27 , HIGH ( 0xFFFFE343 )
000452 ef8f     +LDI R24 , BYTE3 ( 0xFFFFE343 )
000453 ef9f     +LDI R25 , BYTE4 ( 0xFFFFE343 )
                 	__GETD2N 0xFFFFE343
000454 d972      	RCALL __MULD12
000455 d940      	RCALL __ASRD16
000456 d5ed      	RCALL SUBOPT_0x2C
                 ;	pressure = p + ((x1 + x2 + 3791) >> 4);
                +
000457 53e1     +SUBI R30 , LOW ( - 3791 )
000458 4ff1     +SBCI R31 , HIGH ( - 3791 )
000459 4f6f     +SBCI R22 , BYTE3 ( - 3791 )
00045a 4f7f     +SBCI R23 , BYTE4 ( - 3791 )
                 	__ADDD1N 3791
00045b d56d      	RCALL SUBOPT_0x13
00045c e0e4      	LDI  R30,LOW(4)
00045d d916      	RCALL __ASRD12
                +
00045e 81aa     +LDD R26 , Y + 2
00045f 81bb     +LDD R27 , Y + 2 + 1
000460 818c     +LDD R24 , Y + 2 + 2
000461 819d     +LDD R25 , Y + 2 + 3
                 	__GETD2S 2
000462 d8e0      	RCALL __ADDD12
000463 93e0 0198 	STS  _pressure,R30
000465 93f0 0199 	STS  _pressure+1,R31
000467 9360 019a 	STS  _pressure+2,R22
000469 9370 019b 	STS  _pressure+3,R23
                 ;}
00046b da01      	RCALL __LOADLOCR2
                 _0x20E0003:
00046c 9626      	ADIW R28,6
00046d 9508      	RET
                 ;
                 ;//float suhubmp() {
                 ;//	float temperature;
                 ;//    read_uncompensated_temp();
                 ;//	temperature = ((b5 + 8)>>4);
                 ;//	//temperature = temperature *10;
                 ;//	return temperature;
                 ;//}
                 ;
                 ;long int tekananbmp(){
                 _tekananbmp:
                 ;    read_uncompensated_pressure();
00046e df01      	RCALL _read_uncompensated_pressure
                 ;    return pressure;
00046f 91e0 0198 	LDS  R30,_pressure
000471 91f0 0199 	LDS  R31,_pressure+1
000473 9160 019a 	LDS  R22,_pressure+2
000475 9170 019b 	LDS  R23,_pressure+3
000477 9508      	RET
                 ;}
                 ;
                 ;#asm
                    .equ __i2c_port=0x15 ;PORTC
                    .equ __sda_bit=4
                    .equ __scl_bit=5
                 ; 0000 0010 #endasm
                 ;#include <i2c.h>
                 ;
                 ;#define antena PORTD.7
                 ;
                 ;
                 ;//variable--------------------------------------------------
                 ;
                 ;    //enumerasi dan variabel pendukung----------------------
                 ;    enum{main_menu,kirim_respon_bangun,ambil_data,mode_sleep_1,mode_sleep_2,sinkron,ambil_data_delay,ambil_data_truput,packet_data_rate,tes};
                 ;    unsigned char slot,state,i,timer_rto;
                 ;    bit flag_ambil_data;
                 ;    bit respon_bangun_ack;
                 ;    bit flag_kirim_respon;
                 ;    bit rto;
                 ;    unsigned int curah_hujan;
                 ;    //------------------------------------------------------
                 ;
                 ;    //encoder dan kecepatan angin---------------------------
                 ;    unsigned int encoder,kecepatan_angin;
                 ;    bit ambil_data_kecepatan;
                 ;    //------------------------------------------------------
                 ;
                 ;    //SHT11 suhu dan kelembapan-----------------------------
                 ;    float data_suhu,data_kelembapan;
                 ;    //int suhu_bmp085;
                 ;    //------------------------------------------------------
                 ;
                 ;    //BMP085 TEKANAN----------------------------------------
                 ;    long int data_tekanan;
                 ;    //------------------------------------------------------
                 ;
                 ;    //HMC5883L Kompas---------------------------------------
                 ;    unsigned int data_kompas;
                 ;    //------------------------------------------------------
                 ;
                 ;    //RTC waktu---------------------------------------------
                 ;    unsigned char jam,menit,detik;
                 ;    unsigned char tanggal,bulan,tahun;
                 ;    unsigned char jam_sinkron,menit_sinkron,detik_sinkron,tanggal_sinkron,bulan_sinkron,tahun_sinkron;
                 ;    bit flag_sinkron;
                 ;    //------------------------------------------------------
                 ;
                 ;    //Sleep mode--------------------------------------------
                 ;    unsigned char jam_alarm,menit_alarm;
                 ;    bit flag_sleep_mode;
                 ;    //------------------------------------------------------
                 ;
                 ;    //parameter telekomunikasi------------------------------
                 ;    bit flag_start_delay_timer;
                 ;    bit ack;
                 ;    bit flag_start_hitung_truput;
                 ;    bit flag_hitung_pdr;
                 ;    unsigned char data_received_sukses;
                 ;    unsigned int delay;
                 ;    float delay_timer;
                 ;    float troughput;
                 ;    unsigned int data_received_kirim;
                 ;    unsigned int delay_timer_kirim;
                 ;    unsigned int troughput_kirim;
                 ;    //------------------------------------------------------
                 ;
                 ;
                 ;//----------------------------------------------------------
                 ;
                 ;//functions-------------------------------------------------
                 ;
                 ;unsigned int read_adc(unsigned char adc_input){
                 ; 0000 0053 unsigned int read_adc(unsigned char adc_input){
                 _read_adc:
                 ; 0000 0054 ADMUX=adc_input | (0x40 & 0xff);
000478 93aa      	ST   -Y,R26
                 ;	adc_input -> Y+0
000479 81e8      	LD   R30,Y
00047a 64e0      	ORI  R30,0x40
00047b b9e7      	OUT  0x7,R30
                 ; 0000 0055 delay_us(10);
                +
00047c e086     +LDI R24 , LOW ( 6 )
                +__DELAY_USB_LOOP :
00047d 958a     +DEC R24
00047e f7f1     +BRNE __DELAY_USB_LOOP
                 	__DELAY_USB 6
                 ; 0000 0056 ADCSRA|=0x40;
00047f 9a36      	SBI  0x6,6
                 ; 0000 0057 while ((ADCSRA & 0x10)==0);
                 _0x70:
000480 9b34      	SBIS 0x6,4
000481 cffe      	RJMP _0x70
                 ; 0000 0058 ADCSRA|=0x10;
000482 9a34      	SBI  0x6,4
                 ; 0000 0059 return ADCW;
000483 b1e4      	IN   R30,0x4
000484 b1f5      	IN   R31,0x4+1
000485 c305      	RJMP _0x20E0002
                 ; 0000 005A }
                 ;
                 ;
                 ;
                 ;interrupt [USART_RXC] void usart_rx_isr(void){
                 ; 0000 005E interrupt [12] void usart_rx_isr(void){
                 _usart_rx_isr:
000486 d60c      	RCALL SUBOPT_0x35
                 ; 0000 005F unsigned char data;
                 ; 0000 0060 data=UDR;
000487 931a      	ST   -Y,R17
                 ;	data -> R17
000488 b11c      	IN   R17,12
                 ; 0000 0061 
                 ; 0000 0062 switch(slot){
000489 91e0 01c8 	LDS  R30,_slot
00048b d580      	RCALL SUBOPT_0x22
                 ; 0000 0063 
                 ; 0000 0064 //Header file------------------------------------------------------------------
                 ; 0000 0065     case 0:
00048c 9730      	SBIW R30,0
00048d f429      	BRNE _0x76
                 ; 0000 0066     if(data==255)slot=1; //start
00048e 3f1f      	CPI  R17,255
00048f f411      	BRNE _0x77
000490 e0e1      	LDI  R30,LOW(1)
000491 d60f      	RCALL SUBOPT_0x36
                 ; 0000 0067     break;
                 _0x77:
000492 c0ba      	RJMP _0x75
                 ; 0000 0068 
                 ; 0000 0069     case 1:
                 _0x76:
000493 d521      	RCALL SUBOPT_0xE
000494 f589      	BRNE _0x78
                 ; 0000 006A     if      (data==255) slot=1;
000495 3f1f      	CPI  R17,255
000496 f411      	BRNE _0x79
000497 e0e1      	LDI  R30,LOW(1)
000498 c02a      	RJMP _0xE7
                 ; 0000 006B     else if (data=='a'){slot=0;flag_ambil_data=1;}
                 _0x79:
000499 3611      	CPI  R17,97
00049a f421      	BRNE _0x7B
00049b e0e0      	LDI  R30,LOW(0)
00049c d607      	RCALL SUBOPT_0x37
00049d f820      	BLD  R2,0
                 ; 0000 006C     else if (data=='b') slot=2; //sinkronisasi slot 2-7
00049e c026      	RJMP _0x7C
                 _0x7B:
00049f 3612      	CPI  R17,98
0004a0 f411      	BRNE _0x7D
0004a1 e0e2      	LDI  R30,LOW(2)
0004a2 c020      	RJMP _0xE7
                 ; 0000 006D     else if (data=='c'){slot=8;flag_start_delay_timer=1;} //delay slot 8
                 _0x7D:
0004a3 3613      	CPI  R17,99
0004a4 f421      	BRNE _0x7F
0004a5 e0e8      	LDI  R30,LOW(8)
0004a6 d5fd      	RCALL SUBOPT_0x37
0004a7 f827      	BLD  R2,7
                 ; 0000 006E     else if (data=='d') slot=9; //mode tidur slot 9
0004a8 c01c      	RJMP _0x80
                 _0x7F:
0004a9 3614      	CPI  R17,100
0004aa f411      	BRNE _0x81
0004ab e0e9      	LDI  R30,LOW(9)
0004ac c016      	RJMP _0xE7
                 ; 0000 006F     else if (data=='e'){flag_kirim_respon=1;respon_bangun_ack=1;} //respon ack klo tau udah bangun
                 _0x81:
0004ad 3615      	CPI  R17,101
0004ae f421      	BRNE _0x83
0004af 9468      	SET
0004b0 f822      	BLD  R2,2
0004b1 f821      	BLD  R2,1
                 ; 0000 0070     else if (data=='f'){slot=8;flag_start_hitung_truput=1;}
0004b2 c012      	RJMP _0x84
                 _0x83:
0004b3 3616      	CPI  R17,102
0004b4 f421      	BRNE _0x85
0004b5 e0e8      	LDI  R30,LOW(8)
0004b6 d5ed      	RCALL SUBOPT_0x37
0004b7 f831      	BLD  R3,1
                 ; 0000 0071     else if (data=='g'){slot=8;flag_hitung_pdr=1;}
0004b8 c00c      	RJMP _0x86
                 _0x85:
0004b9 3617      	CPI  R17,103
0004ba f421      	BRNE _0x87
0004bb e0e8      	LDI  R30,LOW(8)
0004bc d5e7      	RCALL SUBOPT_0x37
0004bd f832      	BLD  R3,2
                 ; 0000 0072     else if (data=='h'){printf("OK\n");slot=0;} //cek status
0004be c006      	RJMP _0x88
                 _0x87:
0004bf 3618      	CPI  R17,104
0004c0 f421      	BRNE _0x89
0004c1 d5e5      	RCALL SUBOPT_0x38
0004c2 e0e0      	LDI  R30,LOW(0)
                 _0xE7:
0004c3 93e0 01c8 	STS  _slot,R30
                 ; 0000 0073     break;
                 _0x89:
                 _0x88:
                 _0x86:
                 _0x84:
                 _0x80:
                 _0x7C:
0004c5 c087      	RJMP _0x75
                 ; 0000 0074 //----------------------------------------------------------------------------
                 ; 0000 0075 
                 ; 0000 0076 
                 ; 0000 0077 //sinkronisasi waktu slot 2-7-------------------------------------------------
                 ; 0000 0078     {
                 ; 0000 0079     case 2:
                 _0x78:
0004c6 30e2      	CPI  R30,LOW(0x2)
0004c7 e0a0      	LDI  R26,HIGH(0x2)
0004c8 07fa      	CPC  R31,R26
0004c9 f451      	BRNE _0x8A
                 ; 0000 007A     if      (data==255)slot=1;
0004ca 3f1f      	CPI  R17,255
0004cb f411      	BRNE _0x8B
0004cc e0e1      	LDI  R30,LOW(1)
0004cd c003      	RJMP _0xE8
                 ; 0000 007B     else               {jam_sinkron=data;slot=3;} //sinkronisasi jam
                 _0x8B:
0004ce 9310 01e6 	STS  _jam_sinkron,R17
0004d0 e0e3      	LDI  R30,LOW(3)
                 _0xE8:
0004d1 93e0 01c8 	STS  _slot,R30
                 ; 0000 007C     break;
0004d3 c079      	RJMP _0x75
                 ; 0000 007D 
                 ; 0000 007E     case 3:
                 _0x8A:
0004d4 30e3      	CPI  R30,LOW(0x3)
0004d5 e0a0      	LDI  R26,HIGH(0x3)
0004d6 07fa      	CPC  R31,R26
0004d7 f451      	BRNE _0x8D
                 ; 0000 007F     if      (data==255)slot=1;
0004d8 3f1f      	CPI  R17,255
0004d9 f411      	BRNE _0x8E
0004da e0e1      	LDI  R30,LOW(1)
0004db c003      	RJMP _0xE9
                 ; 0000 0080     else               {menit_sinkron=data;slot=4;} //sinkronisasi menit
                 _0x8E:
0004dc 9310 01e7 	STS  _menit_sinkron,R17
0004de e0e4      	LDI  R30,LOW(4)
                 _0xE9:
0004df 93e0 01c8 	STS  _slot,R30
                 ; 0000 0081     break;
0004e1 c06b      	RJMP _0x75
                 ; 0000 0082 
                 ; 0000 0083     case 4:
                 _0x8D:
0004e2 30e4      	CPI  R30,LOW(0x4)
0004e3 e0a0      	LDI  R26,HIGH(0x4)
0004e4 07fa      	CPC  R31,R26
0004e5 f451      	BRNE _0x90
                 ; 0000 0084     if      (data==255)slot=1;
0004e6 3f1f      	CPI  R17,255
0004e7 f411      	BRNE _0x91
0004e8 e0e1      	LDI  R30,LOW(1)
0004e9 c003      	RJMP _0xEA
                 ; 0000 0085     else               {detik_sinkron=data;slot=5;} //sinkronisasi detik
                 _0x91:
0004ea 9310 01e8 	STS  _detik_sinkron,R17
0004ec e0e5      	LDI  R30,LOW(5)
                 _0xEA:
0004ed 93e0 01c8 	STS  _slot,R30
                 ; 0000 0086     break;
0004ef c05d      	RJMP _0x75
                 ; 0000 0087 
                 ; 0000 0088     case 5:
                 _0x90:
0004f0 30e5      	CPI  R30,LOW(0x5)
0004f1 e0a0      	LDI  R26,HIGH(0x5)
0004f2 07fa      	CPC  R31,R26
0004f3 f451      	BRNE _0x93
                 ; 0000 0089     if      (data==255)slot=1;
0004f4 3f1f      	CPI  R17,255
0004f5 f411      	BRNE _0x94
0004f6 e0e1      	LDI  R30,LOW(1)
0004f7 c003      	RJMP _0xEB
                 ; 0000 008A     else               {tanggal_sinkron=data;slot=6;} //sinkronisasi tanggal
                 _0x94:
0004f8 9310 01e9 	STS  _tanggal_sinkron,R17
0004fa e0e6      	LDI  R30,LOW(6)
                 _0xEB:
0004fb 93e0 01c8 	STS  _slot,R30
                 ; 0000 008B     break;
0004fd c04f      	RJMP _0x75
                 ; 0000 008C 
                 ; 0000 008D     case 6:
                 _0x93:
0004fe 30e6      	CPI  R30,LOW(0x6)
0004ff e0a0      	LDI  R26,HIGH(0x6)
000500 07fa      	CPC  R31,R26
000501 f451      	BRNE _0x96
                 ; 0000 008E     if      (data==255)slot=1;
000502 3f1f      	CPI  R17,255
000503 f411      	BRNE _0x97
000504 e0e1      	LDI  R30,LOW(1)
000505 c003      	RJMP _0xEC
                 ; 0000 008F     else               {bulan_sinkron=data;slot=7;} //sinkronisasi bulan
                 _0x97:
000506 9310 01ea 	STS  _bulan_sinkron,R17
000508 e0e7      	LDI  R30,LOW(7)
                 _0xEC:
000509 93e0 01c8 	STS  _slot,R30
                 ; 0000 0090     break;
00050b c041      	RJMP _0x75
                 ; 0000 0091 
                 ; 0000 0092     case 7:
                 _0x96:
00050c 30e7      	CPI  R30,LOW(0x7)
00050d e0a0      	LDI  R26,HIGH(0x7)
00050e 07fa      	CPC  R31,R26
00050f f461      	BRNE _0x99
                 ; 0000 0093     if      (data==255)slot=1;
000510 3f1f      	CPI  R17,255
000511 f411      	BRNE _0x9A
000512 e0e1      	LDI  R30,LOW(1)
000513 c005      	RJMP _0xED
                 ; 0000 0094     else               {tahun_sinkron=data;flag_sinkron=1;slot=0;} //sinkronisasi tahun
                 _0x9A:
000514 9310 01eb 	STS  _tahun_sinkron,R17
000516 9468      	SET
000517 f825      	BLD  R2,5
000518 e0e0      	LDI  R30,LOW(0)
                 _0xED:
000519 93e0 01c8 	STS  _slot,R30
                 ; 0000 0095     break;
00051b c031      	RJMP _0x75
                 ; 0000 0096     }
                 ; 0000 0097 //----------------------------------------------------------------------------
                 ; 0000 0098 
                 ; 0000 0099 //program delay slot 8------------------------------------------------------
                 ; 0000 009A     {
                 ; 0000 009B     case 8:
                 _0x99:
00051c 30e8      	CPI  R30,LOW(0x8)
00051d e0a0      	LDI  R26,HIGH(0x8)
00051e 07fa      	CPC  R31,R26
00051f f481      	BRNE _0x9C
                 ; 0000 009C     if      (data==255) slot=1;
000520 3f1f      	CPI  R17,255
000521 f411      	BRNE _0x9D
000522 e0e1      	LDI  R30,LOW(1)
000523 c009      	RJMP _0xEE
                 ; 0000 009D     else if (data=='K'){
                 _0x9D:
000524 341b      	CPI  R17,75
000525 f449      	BRNE _0x9F
                 ; 0000 009E                         ack=1;
000526 9468      	SET
000527 f830      	BLD  R3,0
                 ; 0000 009F                         if(flag_hitung_pdr==1)slot=8;
000528 fe32      	SBRS R3,2
000529 c002      	RJMP _0xA0
00052a e0e8      	LDI  R30,LOW(8)
00052b c001      	RJMP _0xEE
                 ; 0000 00A0                         else                  slot=0;
                 _0xA0:
00052c e0e0      	LDI  R30,LOW(0)
                 _0xEE:
00052d 93e0 01c8 	STS  _slot,R30
                 ; 0000 00A1                         } //program utama stop timer dan kirim data delay
                 ; 0000 00A2     break;
                 _0x9F:
00052f c01d      	RJMP _0x75
                 ; 0000 00A3     }
                 ; 0000 00A4 //-----------------------------------------------------------------------------
                 ; 0000 00A5 
                 ; 0000 00A6 //program mode sleep-----------------------------------------------------------
                 ; 0000 00A7     {
                 ; 0000 00A8     case 9:
                 _0x9C:
000530 30e9      	CPI  R30,LOW(0x9)
000531 e0a0      	LDI  R26,HIGH(0x9)
000532 07fa      	CPC  R31,R26
000533 f451      	BRNE _0xA2
                 ; 0000 00A9     if      (data==255) slot=1;
000534 3f1f      	CPI  R17,255
000535 f411      	BRNE _0xA3
000536 e0e1      	LDI  R30,LOW(1)
000537 c003      	RJMP _0xEF
                 ; 0000 00AA     else               {jam_alarm=data;slot=10;}
                 _0xA3:
000538 9310 01ec 	STS  _jam_alarm,R17
00053a e0ea      	LDI  R30,LOW(10)
                 _0xEF:
00053b 93e0 01c8 	STS  _slot,R30
                 ; 0000 00AB     break;
00053d c00f      	RJMP _0x75
                 ; 0000 00AC 
                 ; 0000 00AD     case 10:
                 _0xA2:
00053e 30ea      	CPI  R30,LOW(0xA)
00053f e0a0      	LDI  R26,HIGH(0xA)
000540 07fa      	CPC  R31,R26
000541 f459      	BRNE _0x75
                 ; 0000 00AE     if      (data==255) slot=1;
000542 3f1f      	CPI  R17,255
000543 f411      	BRNE _0xA6
000544 e0e1      	LDI  R30,LOW(1)
000545 c005      	RJMP _0xF0
                 ; 0000 00AF     else               {menit_alarm=data;flag_sleep_mode=1;slot=0;}
                 _0xA6:
000546 9310 01ed 	STS  _menit_alarm,R17
000548 9468      	SET
000549 f826      	BLD  R2,6
00054a e0e0      	LDI  R30,LOW(0)
                 _0xF0:
00054b 93e0 01c8 	STS  _slot,R30
                 ; 0000 00B0     break;
                 ; 0000 00B1     }
                 ; 0000 00B2 //-----------------------------------------------------------------------------
                 ; 0000 00B3 
                 ; 0000 00B4 }
                 _0x75:
                 ; 0000 00B5 }
00054d 9119      	LD   R17,Y+
00054e c008      	RJMP _0xF1
                 ;
                 ;interrupt [EXT_INT0] void ext_int0_isr(void){ //interrupt buat bangun
                 ; 0000 00B7 interrupt [2] void ext_int0_isr(void){
                 _ext_int0_isr:
00054f d543      	RCALL SUBOPT_0x35
                 ; 0000 00B8 GICR=0x00;
000550 d55d      	RCALL SUBOPT_0x39
                 ; 0000 00B9 GIFR=0x00;
000551 bfea      	OUT  0x3A,R30
                 ; 0000 00BA sleep_disable();
000552 d3fc      	RCALL _sleep_disable
                 ; 0000 00BB antena=1; //antena nyala
000553 9a97      	SBI  0x12,7
                 ; 0000 00BC alarm_mati();
000554 db4a      	RCALL _alarm_mati
                 ; 0000 00BD state=kirim_respon_bangun;
000555 e0e1      	LDI  R30,LOW(1)
000556 d55a      	RCALL SUBOPT_0x3A
                 ; 0000 00BE 
                 ; 0000 00BF }
                 _0xF1:
000557 91e9      	LD   R30,Y+
000558 bfef      	OUT  SREG,R30
000559 91f9      	LD   R31,Y+
00055a 91e9      	LD   R30,Y+
00055b 91b9      	LD   R27,Y+
00055c 91a9      	LD   R26,Y+
00055d 9199      	LD   R25,Y+
00055e 9189      	LD   R24,Y+
00055f 9179      	LD   R23,Y+
000560 9169      	LD   R22,Y+
000561 90f9      	LD   R15,Y+
000562 9019      	LD   R1,Y+
000563 9009      	LD   R0,Y+
000564 9518      	RETI
                 ;
                 ;interrupt [EXT_INT1] void ext_int1_isr(void){
                 ; 0000 00C1 interrupt [3] void ext_int1_isr(void){
                 _ext_int1_isr:
000565 93aa      	ST   -Y,R26
000566 93ba      	ST   -Y,R27
000567 93ea      	ST   -Y,R30
000568 93fa      	ST   -Y,R31
000569 b7ef      	IN   R30,SREG
00056a 93ea      	ST   -Y,R30
                 ; 0000 00C2 encoder++;
00056b ecae      	LDI  R26,LOW(_encoder)
00056c e0b1      	LDI  R27,HIGH(_encoder)
00056d d546      	RCALL SUBOPT_0x3B
                 ; 0000 00C3 }
00056e 91e9      	LD   R30,Y+
00056f bfef      	OUT  SREG,R30
000570 91f9      	LD   R31,Y+
000571 91e9      	LD   R30,Y+
000572 91b9      	LD   R27,Y+
000573 91a9      	LD   R26,Y+
000574 9518      	RETI
                 ;
                 ;interrupt [TIM1_COMPA] void timer1_compa_isr(void){
                 ; 0000 00C5 interrupt [7] void timer1_compa_isr(void){
                 _timer1_compa_isr:
000575 93ea      	ST   -Y,R30
000576 93fa      	ST   -Y,R31
000577 b7ef      	IN   R30,SREG
000578 93ea      	ST   -Y,R30
                 ; 0000 00C6 kecepatan_angin=encoder;
000579 91e0 01ce 	LDS  R30,_encoder
00057b 91f0 01cf 	LDS  R31,_encoder+1
00057d 93e0 01d0 	STS  _kecepatan_angin,R30
00057f 93f0 01d1 	STS  _kecepatan_angin+1,R31
                 ; 0000 00C7 encoder=0;
000581 d538      	RCALL SUBOPT_0x3C
                 ; 0000 00C8 ambil_data_kecepatan=1;
000582 9468      	SET
000583 f824      	BLD  R2,4
                 ; 0000 00C9 
                 ; 0000 00CA }
000584 91e9      	LD   R30,Y+
000585 bfef      	OUT  SREG,R30
000586 91f9      	LD   R31,Y+
000587 91e9      	LD   R30,Y+
000588 9518      	RETI
                 ;
                 ;interrupt [TIM1_OVF] void timer1_ovf_isr(void){
                 ; 0000 00CC interrupt [9] void timer1_ovf_isr(void){
                 _timer1_ovf_isr:
000589 93ea      	ST   -Y,R30
00058a b7ef      	IN   R30,SREG
00058b 93ea      	ST   -Y,R30
                 ; 0000 00CD timer_rto++;
00058c 91e0 01cb 	LDS  R30,_timer_rto
00058e 5fef      	SUBI R30,-LOW(1)
00058f d530      	RCALL SUBOPT_0x3D
                 ; 0000 00CE }
000590 91e9      	LD   R30,Y+
000591 bfef      	OUT  SREG,R30
000592 91e9      	LD   R30,Y+
000593 9518      	RETI
                 ;
                 ;
                 ;void main(void){
                 ; 0000 00D1 void main(void){
                 _main:
                 ; 0000 00D2 unsigned char minus=0;
                 ; 0000 00D3 
                 ; 0000 00D4 // USART initialization
                 ; 0000 00D5 // Communication Parameters: 8 Data, 1 Stop, No Parity
                 ; 0000 00D6 // USART Receiver: On
                 ; 0000 00D7 // USART Transmitter: On
                 ; 0000 00D8 // USART Mode: Asynchronous
                 ; 0000 00D9 // USART Baud Rate: 9600
                 ; 0000 00DA UCSRA=0x00;
                 ;	minus -> R17
000594 e010      	LDI  R17,0
000595 e0e0      	LDI  R30,LOW(0)
000596 b9eb      	OUT  0xB,R30
                 ; 0000 00DB UCSRB=0x98;
000597 e9e8      	LDI  R30,LOW(152)
000598 b9ea      	OUT  0xA,R30
                 ; 0000 00DC UCSRC=0x86;
000599 e8e6      	LDI  R30,LOW(134)
00059a bde0      	OUT  0x20,R30
                 ; 0000 00DD UBRRH=0x00;
00059b e0e0      	LDI  R30,LOW(0)
00059c bde0      	OUT  0x20,R30
                 ; 0000 00DE UBRRL=0x0b;
00059d e0eb      	LDI  R30,LOW(11)
00059e b9e9      	OUT  0x9,R30
                 ; 0000 00DF 
                 ; 0000 00E0 ACSR=0x80;
00059f e8e0      	LDI  R30,LOW(128)
0005a0 b9e8      	OUT  0x8,R30
                 ; 0000 00E1 
                 ; 0000 00E2 DDRC.3=1;
0005a1 9aa3      	SBI  0x14,3
                 ; 0000 00E3 
                 ; 0000 00E4 //power antena
                 ; 0000 00E5 DDRD.7=1;
0005a2 9a8f      	SBI  0x11,7
                 ; 0000 00E6 antena=1;
0005a3 9a97      	SBI  0x12,7
                 ; 0000 00E7 
                 ; 0000 00E8 i2c_init();
0005a4 d59c      	RCALL _i2c_init
                 ; 0000 00E9 delay_ms(10);
0005a5 e0aa      	LDI  R26,LOW(10)
0005a6 d51c      	RCALL SUBOPT_0x3E
                 ; 0000 00EA read_calibration_bmp085();
0005a7 dc95      	RCALL _read_calibration_bmp085
                 ; 0000 00EB 
                 ; 0000 00EC set_rtc();
0005a8 dafb      	RCALL _set_rtc
                 ; 0000 00ED 
                 ; 0000 00EE PORTD.2=1;
0005a9 9a92      	SBI  0x12,2
                 ; 0000 00EF PORTD.3=1;
0005aa 9a93      	SBI  0x12,3
                 ; 0000 00F0 alarm_mati();
0005ab daf3      	RCALL _alarm_mati
                 ; 0000 00F1 
                 ; 0000 00F2 TCCR1B=0x07;
0005ac e0e7      	LDI  R30,LOW(7)
0005ad bdee      	OUT  0x2E,R30
                 ; 0000 00F3 
                 ; 0000 00F4 #asm("sei")
0005ae 9478      	sei
                 ; 0000 00F5 state=main_menu;
0005af d515      	RCALL SUBOPT_0x3F
                 ; 0000 00F6 while (1){
                 _0xB4:
                 ; 0000 00F7 switch(state){
0005b0 91e0 01c9 	LDS  R30,_state
0005b2 d459      	RCALL SUBOPT_0x22
                 ; 0000 00F8 
                 ; 0000 00F9     case main_menu:{
0005b3 9730      	SBIW R30,0
0005b4 f509      	BRNE _0xBA
                 ; 0000 00FA     if(flag_ambil_data==1)          state=ambil_data;
0005b5 fe20      	SBRS R2,0
0005b6 c002      	RJMP _0xBB
0005b7 e0e2      	LDI  R30,LOW(2)
0005b8 d4f8      	RCALL SUBOPT_0x3A
                 ; 0000 00FB     if(flag_sleep_mode==1)          state=mode_sleep_1;
                 _0xBB:
0005b9 fe26      	SBRS R2,6
0005ba c002      	RJMP _0xBC
0005bb e0e3      	LDI  R30,LOW(3)
0005bc d4f4      	RCALL SUBOPT_0x3A
                 ; 0000 00FC     if(flag_sinkron==1)             state=sinkron;
                 _0xBC:
0005bd fe25      	SBRS R2,5
0005be c002      	RJMP _0xBD
0005bf e0e5      	LDI  R30,LOW(5)
0005c0 d4f0      	RCALL SUBOPT_0x3A
                 ; 0000 00FD     if(flag_start_delay_timer==1)   state=ambil_data_delay;
                 _0xBD:
0005c1 fe27      	SBRS R2,7
0005c2 c002      	RJMP _0xBE
0005c3 e0e6      	LDI  R30,LOW(6)
0005c4 d4ec      	RCALL SUBOPT_0x3A
                 ; 0000 00FE     if(flag_start_hitung_truput==1) state=ambil_data_truput;
                 _0xBE:
0005c5 fe31      	SBRS R3,1
0005c6 c002      	RJMP _0xBF
0005c7 e0e7      	LDI  R30,LOW(7)
0005c8 d4e8      	RCALL SUBOPT_0x3A
                 ; 0000 00FF     if(flag_kirim_respon==1)        state=kirim_respon_bangun;
                 _0xBF:
0005c9 fe22      	SBRS R2,2
0005ca c002      	RJMP _0xC0
0005cb e0e1      	LDI  R30,LOW(1)
0005cc d4e4      	RCALL SUBOPT_0x3A
                 ; 0000 0100     if(flag_start_hitung_truput==1) state=ambil_data_truput;
                 _0xC0:
0005cd fe31      	SBRS R3,1
0005ce c002      	RJMP _0xC1
0005cf e0e7      	LDI  R30,LOW(7)
0005d0 d4e0      	RCALL SUBOPT_0x3A
                 ; 0000 0101     if(flag_hitung_pdr==1)          state=packet_data_rate;
                 _0xC1:
0005d1 fe32      	SBRS R3,2
0005d2 c002      	RJMP _0xC2
0005d3 e0e8      	LDI  R30,LOW(8)
0005d4 d4dc      	RCALL SUBOPT_0x3A
                 ; 0000 0102     }break;
                 _0xC2:
0005d5 c1ae      	RJMP _0xB9
                 ; 0000 0103 
                 ; 0000 0104     case ambil_data:{
                 _0xBA:
0005d6 30e2      	CPI  R30,LOW(0x2)
0005d7 e0a0      	LDI  R26,HIGH(0x2)
0005d8 07fa      	CPC  R31,R26
0005d9 f009      	BREQ PC+2
0005da c0a3      	RJMP _0xC3
                 ; 0000 0105     curah_hujan=TCNT1;                                    //ambil data curah hujan
0005db b5ec      	IN   R30,0x2C
0005dc b5fd      	IN   R31,0x2C+1
0005dd 93e0 01cc 	STS  _curah_hujan,R30
0005df 93f0 01cd 	STS  _curah_hujan+1,R31
                 ; 0000 0106     TCCR1B=0x0D;
0005e1 e0ed      	LDI  R30,LOW(13)
0005e2 bdee      	OUT  0x2E,R30
                 ; 0000 0107     OCR1AH=0x07;
0005e3 e0e7      	LDI  R30,LOW(7)
0005e4 bdeb      	OUT  0x2B,R30
                 ; 0000 0108     OCR1AL=0x07;
0005e5 bdea      	OUT  0x2A,R30
                 ; 0000 0109     TIMSK=0x10;
0005e6 e1e0      	LDI  R30,LOW(16)
0005e7 bfe9      	OUT  0x39,R30
                 ; 0000 010A     GICR=0x80;
0005e8 e8e0      	LDI  R30,LOW(128)
0005e9 bfeb      	OUT  0x3B,R30
                 ; 0000 010B     MCUCR=0x08;
0005ea e0e8      	LDI  R30,LOW(8)
0005eb bfe5      	OUT  0x35,R30
                 ; 0000 010C     GIFR=0x80;
0005ec e8e0      	LDI  R30,LOW(128)
0005ed bfea      	OUT  0x3A,R30
                 ; 0000 010D     encoder=0;
0005ee d4cb      	RCALL SUBOPT_0x3C
                 ; 0000 010E     TCNT1=0;
0005ef d4d7      	RCALL SUBOPT_0x40
                 ; 0000 010F     ambil_data_kecepatan=0;while(!ambil_data_kecepatan);  //ambil data kecepatan angin
0005f0 94e8      	CLT
0005f1 f824      	BLD  R2,4
                 _0xC4:
0005f2 fe24      	SBRS R2,4
0005f3 cffe      	RJMP _0xC4
                 ; 0000 0110     //printf("data_kecepatan\r\n");
                 ; 0000 0111     jam_brp(&jam,&menit,&detik);                          //ambil data waktu
0005f4 eee0      	LDI  R30,LOW(_jam)
0005f5 e0f1      	LDI  R31,HIGH(_jam)
0005f6 d400      	RCALL SUBOPT_0x1D
0005f7 eee1      	LDI  R30,LOW(_menit)
0005f8 e0f1      	LDI  R31,HIGH(_menit)
0005f9 d3fd      	RCALL SUBOPT_0x1D
0005fa eea2      	LDI  R26,LOW(_detik)
0005fb e0b1      	LDI  R27,HIGH(_detik)
0005fc daca      	RCALL _jam_brp
                 ; 0000 0112     //printf("data_jam\r\n");
                 ; 0000 0113     tgl_brp(&tanggal,&bulan,&tahun);
0005fd eee3      	LDI  R30,LOW(_tanggal)
0005fe e0f1      	LDI  R31,HIGH(_tanggal)
0005ff d3f7      	RCALL SUBOPT_0x1D
000600 eee4      	LDI  R30,LOW(_bulan)
000601 e0f1      	LDI  R31,HIGH(_bulan)
000602 d3f4      	RCALL SUBOPT_0x1D
000603 eea5      	LDI  R26,LOW(_tahun)
000604 e0b1      	LDI  R27,HIGH(_tahun)
000605 dace      	RCALL _tgl_brp
                 ; 0000 0114     //printf("data_tanggal\r\n");
                 ; 0000 0115     baca_sht11(&data_kelembapan,&data_suhu);              //ambil data suhu dan kelembapan
000606 ede6      	LDI  R30,LOW(_data_kelembapan)
000607 e0f1      	LDI  R31,HIGH(_data_kelembapan)
000608 d3ee      	RCALL SUBOPT_0x1D
000609 eda2      	LDI  R26,LOW(_data_suhu)
00060a e0b1      	LDI  R27,HIGH(_data_suhu)
00060b dbf4      	RCALL _baca_sht11
                 ; 0000 0116     //printf("data sht\r\n");
                 ; 0000 0117 
                 ; 0000 0118     read_uncompensated_temp();
00060c dd1a      	RCALL _read_uncompensated_temp
                 ; 0000 0119     read_uncompensated_pressure();
00060d dd62      	RCALL _read_uncompensated_pressure
                 ; 0000 011A     //suhu_bmp085=temperature_bmp085();
                 ; 0000 011B     //printf("data_suhubmp085\r\n");
                 ; 0000 011C     data_tekanan=tekananbmp();                                  //ambil data tekanan
00060e de5f      	RCALL _tekananbmp
00060f 93e0 01da 	STS  _data_tekanan,R30
000611 93f0 01db 	STS  _data_tekanan+1,R31
000613 9360 01dc 	STS  _data_tekanan+2,R22
000615 9370 01dd 	STS  _data_tekanan+3,R23
                 ; 0000 011D     //printf("data_pressurebmp085\r\n");
                 ; 0000 011E 
                 ; 0000 011F     delay_ms(1);
000617 e0a1      	LDI  R26,LOW(1)
000618 d4aa      	RCALL SUBOPT_0x3E
                 ; 0000 0120     ADMUX=0x40 & 0xff;
000619 e4e0      	LDI  R30,LOW(64)
00061a b9e7      	OUT  0x7,R30
                 ; 0000 0121     ADCSRA=0x85;
00061b e8e5      	LDI  R30,LOW(133)
00061c b9e6      	OUT  0x6,R30
                 ; 0000 0122     data_kompas=read_adc(0);                                   //ambil data arah mata angin
00061d e0a0      	LDI  R26,LOW(0)
00061e de59      	RCALL _read_adc
00061f 93e0 01de 	STS  _data_kompas,R30
000621 93f0 01df 	STS  _data_kompas+1,R31
                 ; 0000 0123     ADMUX=0x00;
000623 e0e0      	LDI  R30,LOW(0)
000624 b9e7      	OUT  0x7,R30
                 ; 0000 0124     ADCSRA=0x00;
000625 b9e6      	OUT  0x6,R30
                 ; 0000 0125     //printf("data_kompas\r\n");
                 ; 0000 0126     flag_ambil_data=0;
000626 94e8      	CLT
000627 f820      	BLD  R2,0
                 ; 0000 0127     TCCR1B=0x07;
000628 e0e7      	LDI  R30,LOW(7)
000629 bdee      	OUT  0x2E,R30
                 ; 0000 0128     TCNT1=0;
00062a d49c      	RCALL SUBOPT_0x40
                 ; 0000 0129     OCR1AH=0x00;
00062b e0e0      	LDI  R30,LOW(0)
00062c bdeb      	OUT  0x2B,R30
                 ; 0000 012A     OCR1AL=0x00;
00062d bdea      	OUT  0x2A,R30
                 ; 0000 012B     TIMSK=0x00;
00062e bfe9      	OUT  0x39,R30
                 ; 0000 012C     GICR=0x00;
00062f d47e      	RCALL SUBOPT_0x39
                 ; 0000 012D     MCUCR=0x00;
000630 bfe5      	OUT  0x35,R30
                 ; 0000 012E     GIFR=0x00;
000631 e0e0      	LDI  R30,LOW(0)
000632 bfea      	OUT  0x3A,R30
                 ; 0000 012F     printf("A%dB%dC%dD%dE%dF%dG%ldH%dI%dJ%dK%dZ\n",jam,menit,kecepatan_angin,(int)data_kelembapan,(int)data_suhu,data_kompas,data_tekanan,tanggal,bulan,tahun,curah_hujan);
                +
000633 e4e0     +LDI R30 , LOW ( 2 * _0x0 + ( 4 ) )
000634 e0f0     +LDI R31 , HIGH ( 2 * _0x0 + ( 4 ) )
                 	__POINTW1FN _0x0,4
000635 d3c1      	RCALL SUBOPT_0x1D
000636 91e0 01e0 	LDS  R30,_jam
000638 d493      	RCALL SUBOPT_0x41
000639 91e0 01e1 	LDS  R30,_menit
00063b d490      	RCALL SUBOPT_0x41
00063c 91e0 01d0 	LDS  R30,_kecepatan_angin
00063e 91f0 01d1 	LDS  R31,_kecepatan_angin+1
000640 d490      	RCALL SUBOPT_0x42
000641 91e0 01d6 	LDS  R30,_data_kelembapan
000643 91f0 01d7 	LDS  R31,_data_kelembapan+1
000645 9160 01d8 	LDS  R22,_data_kelembapan+2
000647 9170 01d9 	LDS  R23,_data_kelembapan+3
000649 d581      	RCALL __CFD1
00064a d3f7      	RCALL SUBOPT_0x2B
00064b d800      	RCALL __PUTPARD1
00064c 91e0 01d2 	LDS  R30,_data_suhu
00064e 91f0 01d3 	LDS  R31,_data_suhu+1
000650 9160 01d4 	LDS  R22,_data_suhu+2
000652 9170 01d5 	LDS  R23,_data_suhu+3
000654 d576      	RCALL __CFD1
000655 d3ec      	RCALL SUBOPT_0x2B
000656 d7f5      	RCALL __PUTPARD1
000657 91e0 01de 	LDS  R30,_data_kompas
000659 91f0 01df 	LDS  R31,_data_kompas+1
00065b d475      	RCALL SUBOPT_0x42
00065c 91e0 01da 	LDS  R30,_data_tekanan
00065e 91f0 01db 	LDS  R31,_data_tekanan+1
000660 9160 01dc 	LDS  R22,_data_tekanan+2
000662 9170 01dd 	LDS  R23,_data_tekanan+3
000664 d7e7      	RCALL __PUTPARD1
000665 91e0 01e3 	LDS  R30,_tanggal
000667 d464      	RCALL SUBOPT_0x41
000668 91e0 01e4 	LDS  R30,_bulan
00066a d461      	RCALL SUBOPT_0x41
00066b 91e0 01e5 	LDS  R30,_tahun
00066d d45e      	RCALL SUBOPT_0x41
00066e 91e0 01cc 	LDS  R30,_curah_hujan
000670 91f0 01cd 	LDS  R31,_curah_hujan+1
000672 d45e      	RCALL SUBOPT_0x42
000673 e28c      	LDI  R24,44
000674 d2a1      	RCALL _printf
000675 96ae      	ADIW R28,46
                 ; 0000 0130     curah_hujan=0;
000676 e0e0      	LDI  R30,LOW(0)
000677 93e0 01cc 	STS  _curah_hujan,R30
000679 93e0 01cd 	STS  _curah_hujan+1,R30
                 ; 0000 0131     state=main_menu;
00067b d449      	RCALL SUBOPT_0x3F
                 ; 0000 0132     minus++;
00067c 5f1f      	SUBI R17,-1
                 ; 0000 0133     }break;
00067d c106      	RJMP _0xB9
                 ; 0000 0134 
                 ; 0000 0135     case sinkron:{
                 _0xC3:
00067e 30e5      	CPI  R30,LOW(0x5)
00067f e0a0      	LDI  R26,HIGH(0x5)
000680 07fa      	CPC  R31,R26
000681 f4b9      	BRNE _0xC7
                 ; 0000 0136     set_waktu(jam_sinkron,menit_sinkron,detik_sinkron);
000682 91e0 01e6 	LDS  R30,_jam_sinkron
000684 93ea      	ST   -Y,R30
000685 91e0 01e7 	LDS  R30,_menit_sinkron
000687 93ea      	ST   -Y,R30
000688 91a0 01e8 	LDS  R26,_detik_sinkron
00068a da2f      	RCALL _set_waktu
                 ; 0000 0137     set_tgl(tanggal_sinkron,bulan_sinkron,tahun_sinkron);
00068b 91e0 01e9 	LDS  R30,_tanggal_sinkron
00068d 93ea      	ST   -Y,R30
00068e 91e0 01ea 	LDS  R30,_bulan_sinkron
000690 93ea      	ST   -Y,R30
000691 91a0 01eb 	LDS  R26,_tahun_sinkron
000693 da4c      	RCALL _set_tgl
                 ; 0000 0138     printf("OK\n");
000694 d412      	RCALL SUBOPT_0x38
                 ; 0000 0139     flag_sinkron=0;
000695 94e8      	CLT
000696 f825      	BLD  R2,5
                 ; 0000 013A     state=main_menu;
000697 d42d      	RCALL SUBOPT_0x3F
                 ; 0000 013B     }break;
000698 c0eb      	RJMP _0xB9
                 ; 0000 013C 
                 ; 0000 013D     case ambil_data_delay:{
                 _0xC7:
000699 30e6      	CPI  R30,LOW(0x6)
00069a e0a0      	LDI  R26,HIGH(0x6)
00069b 07fa      	CPC  R31,R26
00069c f559      	BRNE _0xC8
                 ; 0000 013E     delay=0;
00069d d436      	RCALL SUBOPT_0x43
                 ; 0000 013F     TCCR1B=0x01;
                 ; 0000 0140     TIMSK=0x04;
                 ; 0000 0141     timer_rto=0;
                 ; 0000 0142     TCNT1=0;
                 ; 0000 0143     ack=0;
00069e d441      	RCALL SUBOPT_0x44
                 ; 0000 0144     printf("D123456789012345678901234567890\n");
00069f d443      	RCALL SUBOPT_0x45
                 ; 0000 0145     while(!ack && timer_rto<122);
                 _0xC9:
0006a0 fc30      	SBRC R3,0
0006a1 c002      	RJMP _0xCC
0006a2 d447      	RCALL SUBOPT_0x46
0006a3 f008      	BRLO _0xCD
                 _0xCC:
0006a4 c001      	RJMP _0xCB
                 _0xCD:
0006a5 cffa      	RJMP _0xC9
                 _0xCB:
                 ; 0000 0146     delay_timer=(float)TCNT1*0.00025;
0006a6 d447      	RCALL SUBOPT_0x47
                 ; 0000 0147     delay_timer_kirim=(int)delay_timer;
0006a7 91e0 01f1 	LDS  R30,_delay_timer
0006a9 91f0 01f2 	LDS  R31,_delay_timer+1
0006ab 9160 01f3 	LDS  R22,_delay_timer+2
0006ad 9170 01f4 	LDS  R23,_delay_timer+3
0006af d51b      	RCALL __CFD1
0006b0 d44e      	RCALL SUBOPT_0x48
                 ; 0000 0148     if(delay_timer_kirim<1)delay_timer_kirim=1;
0006b1 91a0 01fb 	LDS  R26,_delay_timer_kirim
0006b3 91b0 01fc 	LDS  R27,_delay_timer_kirim+1
0006b5 9711      	SBIW R26,1
0006b6 f418      	BRSH _0xCE
0006b7 e0e1      	LDI  R30,LOW(1)
0006b8 e0f0      	LDI  R31,HIGH(1)
0006b9 d445      	RCALL SUBOPT_0x48
                 ; 0000 0149     printf("L%dZ\n",delay_timer_kirim);
                 _0xCE:
                +
0006ba e8e6     +LDI R30 , LOW ( 2 * _0x0 + ( 74 ) )
0006bb e0f0     +LDI R31 , HIGH ( 2 * _0x0 + ( 74 ) )
                 	__POINTW1FN _0x0,74
0006bc d33a      	RCALL SUBOPT_0x1D
0006bd 91e0 01fb 	LDS  R30,_delay_timer_kirim
0006bf 91f0 01fc 	LDS  R31,_delay_timer_kirim+1
0006c1 d40f      	RCALL SUBOPT_0x42
0006c2 d441      	RCALL SUBOPT_0x49
                 ; 0000 014A     TCCR1B=0x0B;
                 ; 0000 014B     ack=0;
0006c3 d41c      	RCALL SUBOPT_0x44
                 ; 0000 014C     flag_start_delay_timer=0;
0006c4 94e8      	CLT
0006c5 f827      	BLD  R2,7
                 ; 0000 014D     state=main_menu;
0006c6 d3fe      	RCALL SUBOPT_0x3F
                 ; 0000 014E     }break;
0006c7 c0bc      	RJMP _0xB9
                 ; 0000 014F 
                 ; 0000 0150     case ambil_data_truput:{
                 _0xC8:
0006c8 30e7      	CPI  R30,LOW(0x7)
0006c9 e0a0      	LDI  R26,HIGH(0x7)
0006ca 07fa      	CPC  R31,R26
0006cb f009      	BREQ PC+2
0006cc c038      	RJMP _0xCF
                 ; 0000 0151     delay=0;
0006cd d406      	RCALL SUBOPT_0x43
                 ; 0000 0152     TCCR1B=0x01;
                 ; 0000 0153     TIMSK=0x04;
                 ; 0000 0154     timer_rto=0;
                 ; 0000 0155     TCNT1=0;
                 ; 0000 0156     printf("D123456789012345678901234567890\n");
0006ce d414      	RCALL SUBOPT_0x45
                 ; 0000 0157     while(!ack && timer_rto<122);
                 _0xD0:
0006cf fc30      	SBRC R3,0
0006d0 c002      	RJMP _0xD3
0006d1 d418      	RCALL SUBOPT_0x46
0006d2 f008      	BRLO _0xD4
                 _0xD3:
0006d3 c001      	RJMP _0xD2
                 _0xD4:
0006d4 cffa      	RJMP _0xD0
                 _0xD2:
                 ; 0000 0158     delay_timer=(float)TCNT1*0.00025;
0006d5 d418      	RCALL SUBOPT_0x47
                 ; 0000 0159     troughput=32/(delay_timer/1000);
0006d6 91a0 01f1 	LDS  R26,_delay_timer
0006d8 91b0 01f2 	LDS  R27,_delay_timer+1
0006da 9180 01f3 	LDS  R24,_delay_timer+2
0006dc 9190 01f4 	LDS  R25,_delay_timer+3
                +
0006de e0e0     +LDI R30 , LOW ( 0x447A0000 )
0006df e0f0     +LDI R31 , HIGH ( 0x447A0000 )
0006e0 e76a     +LDI R22 , BYTE3 ( 0x447A0000 )
0006e1 e474     +LDI R23 , BYTE4 ( 0x447A0000 )
                 	__GETD1N 0x447A0000
0006e2 d5f7      	RCALL __DIVF21
                +
0006e3 e0a0     +LDI R26 , LOW ( 0x42000000 )
0006e4 e0b0     +LDI R27 , HIGH ( 0x42000000 )
0006e5 e080     +LDI R24 , BYTE3 ( 0x42000000 )
0006e6 e492     +LDI R25 , BYTE4 ( 0x42000000 )
                 	__GETD2N 0x42000000
0006e7 d5f2      	RCALL __DIVF21
0006e8 93e0 01f5 	STS  _troughput,R30
0006ea 93f0 01f6 	STS  _troughput+1,R31
0006ec 9360 01f7 	STS  _troughput+2,R22
0006ee 9370 01f8 	STS  _troughput+3,R23
                 ; 0000 015A     troughput_kirim=(int)troughput;
0006f0 d4da      	RCALL __CFD1
0006f1 93e0 01fd 	STS  _troughput_kirim,R30
0006f3 93f0 01fe 	STS  _troughput_kirim+1,R31
                 ; 0000 015B     printf("T%dZ\n",troughput_kirim);
                +
0006f5 e8ec     +LDI R30 , LOW ( 2 * _0x0 + ( 80 ) )
0006f6 e0f0     +LDI R31 , HIGH ( 2 * _0x0 + ( 80 ) )
                 	__POINTW1FN _0x0,80
0006f7 d2ff      	RCALL SUBOPT_0x1D
0006f8 91e0 01fd 	LDS  R30,_troughput_kirim
0006fa 91f0 01fe 	LDS  R31,_troughput_kirim+1
0006fc d3d4      	RCALL SUBOPT_0x42
0006fd d406      	RCALL SUBOPT_0x49
                 ; 0000 015C     TCCR1B=0x0B;
                 ; 0000 015D     TIMSK=0x10;
0006fe e1e0      	LDI  R30,LOW(16)
0006ff bfe9      	OUT  0x39,R30
                 ; 0000 015E     ack=0;
000700 d3df      	RCALL SUBOPT_0x44
                 ; 0000 015F     flag_start_hitung_truput=0;
000701 94e8      	CLT
000702 f831      	BLD  R3,1
                 ; 0000 0160     state=main_menu;
000703 d3c1      	RCALL SUBOPT_0x3F
                 ; 0000 0161     }break;
000704 c07f      	RJMP _0xB9
                 ; 0000 0162 
                 ; 0000 0163     case packet_data_rate:{
                 _0xCF:
000705 30e8      	CPI  R30,LOW(0x8)
000706 e0a0      	LDI  R26,HIGH(0x8)
000707 07fa      	CPC  R31,R26
000708 f009      	BREQ PC+2
000709 c041      	RJMP _0xD5
                 ; 0000 0164     delay=0;
00070a d3c9      	RCALL SUBOPT_0x43
                 ; 0000 0165     TCCR1B=0x01;
                 ; 0000 0166     TIMSK=0x04;
                 ; 0000 0167     timer_rto=0;
                 ; 0000 0168     TCNT1=0;
                 ; 0000 0169     data_received_sukses=0;
00070b e0e0      	LDI  R30,LOW(0)
00070c 93e0 01ee 	STS  _data_received_sukses,R30
                 ; 0000 016A     for(i=0;i<11;i++){
00070e 93e0 01ca 	STS  _i,R30
                 _0xD7:
000710 91a0 01ca 	LDS  R26,_i
000712 30ab      	CPI  R26,LOW(0xB)
000713 f4e0      	BRSH _0xD8
                 ; 0000 016B         printf("D123456789012345678901234567890\n");
000714 d3ce      	RCALL SUBOPT_0x45
                 ; 0000 016C         while(!ack){
                 _0xD9:
000715 fc30      	SBRC R3,0
000716 c006      	RJMP _0xDB
                 ; 0000 016D             if(timer_rto>121){rto=1;break;}
000717 d3d2      	RCALL SUBOPT_0x46
000718 f018      	BRLO _0xDC
000719 9468      	SET
00071a f823      	BLD  R2,3
00071b c001      	RJMP _0xDB
                 ; 0000 016E         }
                 _0xDC:
00071c cff8      	RJMP _0xD9
                 _0xDB:
                 ; 0000 016F     if(rto==1)rto=0;
00071d fe23      	SBRS R2,3
00071e c003      	RJMP _0xDD
00071f 94e8      	CLT
000720 f823      	BLD  R2,3
                 ; 0000 0170     else      data_received_sukses++;
000721 c005      	RJMP _0xDE
                 _0xDD:
000722 91e0 01ee 	LDS  R30,_data_received_sukses
000724 5fef      	SUBI R30,-LOW(1)
000725 93e0 01ee 	STS  _data_received_sukses,R30
                 ; 0000 0171     ack=0;
                 _0xDE:
000727 d3b8      	RCALL SUBOPT_0x44
                 ; 0000 0172     timer_rto=0;
000728 e0e0      	LDI  R30,LOW(0)
000729 d396      	RCALL SUBOPT_0x3D
                 ; 0000 0173     }
00072a 91e0 01ca 	LDS  R30,_i
00072c 5fef      	SUBI R30,-LOW(1)
00072d 93e0 01ca 	STS  _i,R30
00072f cfe0      	RJMP _0xD7
                 _0xD8:
                 ; 0000 0174     data_received_kirim=data_received_sukses*10;
000730 91a0 01ee 	LDS  R26,_data_received_sukses
000732 e0ea      	LDI  R30,LOW(10)
000733 9fea      	MUL  R30,R26
000734 01f0      	MOVW R30,R0
000735 93e0 01f9 	STS  _data_received_kirim,R30
000737 93f0 01fa 	STS  _data_received_kirim+1,R31
                 ; 0000 0175     printf("P%dZ\n",data_received_kirim);
                +
000739 e9e2     +LDI R30 , LOW ( 2 * _0x0 + ( 86 ) )
00073a e0f0     +LDI R31 , HIGH ( 2 * _0x0 + ( 86 ) )
                 	__POINTW1FN _0x0,86
00073b d2bb      	RCALL SUBOPT_0x1D
00073c 91e0 01f9 	LDS  R30,_data_received_kirim
00073e 91f0 01fa 	LDS  R31,_data_received_kirim+1
000740 d390      	RCALL SUBOPT_0x42
000741 d3c2      	RCALL SUBOPT_0x49
                 ; 0000 0176     TCCR1B=0x0B;
                 ; 0000 0177     TIMSK=0x10;
000742 e1e0      	LDI  R30,LOW(16)
000743 bfe9      	OUT  0x39,R30
                 ; 0000 0178     ack=0;
000744 d39b      	RCALL SUBOPT_0x44
                 ; 0000 0179     flag_hitung_pdr=0;
000745 94e8      	CLT
000746 f832      	BLD  R3,2
                 ; 0000 017A     slot=0;
000747 e0e0      	LDI  R30,LOW(0)
000748 d358      	RCALL SUBOPT_0x36
                 ; 0000 017B     state=main_menu;
000749 d37b      	RCALL SUBOPT_0x3F
                 ; 0000 017C     }break;
00074a c039      	RJMP _0xB9
                 ; 0000 017D 
                 ; 0000 017E     case kirim_respon_bangun:{
                 _0xD5:
00074b d269      	RCALL SUBOPT_0xE
00074c f461      	BRNE _0xDF
                 ; 0000 017F     printf("W\n");
                +
00074d e9e8     +LDI R30 , LOW ( 2 * _0x0 + ( 92 ) )
00074e e0f0     +LDI R31 , HIGH ( 2 * _0x0 + ( 92 ) )
                 	__POINTW1FN _0x0,92
00074f d3ba      	RCALL SUBOPT_0x4A
                 ; 0000 0180     delay_ms(100);
000750 e6a4      	LDI  R26,LOW(100)
000751 d371      	RCALL SUBOPT_0x3E
                 ; 0000 0181     if(respon_bangun_ack){flag_kirim_respon=0;respon_bangun_ack=0;state=main_menu;}
000752 fe21      	SBRS R2,1
000753 c004      	RJMP _0xE0
000754 94e8      	CLT
000755 f822      	BLD  R2,2
000756 f821      	BLD  R2,1
000757 d36d      	RCALL SUBOPT_0x3F
                 ; 0000 0182     }break;
                 _0xE0:
000758 c02b      	RJMP _0xB9
                 ; 0000 0183 
                 ; 0000 0184     case mode_sleep_1:{
                 _0xDF:
000759 30e3      	CPI  R30,LOW(0x3)
00075a e0a0      	LDI  R26,HIGH(0x3)
00075b 07fa      	CPC  R31,R26
00075c f499      	BRNE _0xE1
                 ; 0000 0185     set_alarm(jam_alarm,menit_alarm);
00075d 91e0 01ec 	LDS  R30,_jam_alarm
00075f 93ea      	ST   -Y,R30
000760 91a0 01ed 	LDS  R26,_menit_alarm
000762 d948      	RCALL _set_alarm
                 ; 0000 0186     printf("S\n");
                +
000763 e9eb     +LDI R30 , LOW ( 2 * _0x0 + ( 95 ) )
000764 e0f0     +LDI R31 , HIGH ( 2 * _0x0 + ( 95 ) )
                 	__POINTW1FN _0x0,95
000765 d3a4      	RCALL SUBOPT_0x4A
                 ; 0000 0187     antena=0;
000766 9897      	CBI  0x12,7
                 ; 0000 0188     flag_sleep_mode=0;
000767 94e8      	CLT
000768 f826      	BLD  R2,6
                 ; 0000 0189     GICR=0x00;
000769 d344      	RCALL SUBOPT_0x39
                 ; 0000 018A     GIFR=0x00;
00076a bfea      	OUT  0x3A,R30
                 ; 0000 018B     MCUCR=0x00;
00076b e0e0      	LDI  R30,LOW(0)
00076c bfe5      	OUT  0x35,R30
                 ; 0000 018C     state=mode_sleep_2;
00076d e0e4      	LDI  R30,LOW(4)
00076e d342      	RCALL SUBOPT_0x3A
                 ; 0000 018D     }break;
00076f c014      	RJMP _0xB9
                 ; 0000 018E 
                 ; 0000 018F     case mode_sleep_2:{
                 _0xE1:
000770 30e4      	CPI  R30,LOW(0x4)
000771 e0a0      	LDI  R26,HIGH(0x4)
000772 07fa      	CPC  R31,R26
000773 f431      	BRNE _0xE4
                 ; 0000 0190     GICR=0x40;
000774 e4e0      	LDI  R30,LOW(64)
000775 bfeb      	OUT  0x3B,R30
                 ; 0000 0191     GIFR=0x40;
000776 bfea      	OUT  0x3A,R30
                 ; 0000 0192     sleep_enable();
000777 d1d3      	RCALL _sleep_enable
                 ; 0000 0193     idle();
000778 d1da      	RCALL _idle
                 ; 0000 0194     //printf("hoho haha\r\n");
                 ; 0000 0195     }break;
000779 c00a      	RJMP _0xB9
                 ; 0000 0196 
                 ; 0000 0197     case tes:{
                 _0xE4:
00077a 30e9      	CPI  R30,LOW(0x9)
00077b e0a0      	LDI  R26,HIGH(0x9)
00077c 07fa      	CPC  R31,R26
00077d f431      	BRNE _0xB9
                 ; 0000 0198 //    suhubmp();
                 ; 0000 0199 //    printf("Tekanan=%luPa ",tekananbmp());
                 ; 0000 019A //    baca_sht11(&data_kelembapan,&data_suhu);              //ambil data suhu dan kelembapan
                 ; 0000 019B //    printf("Kelembapan=%d%c Suhu=%dC \r\n",(int)data_kelembapan,37,(int)(data_suhu*10));
                 ; 0000 019C     printf("01234567890abcdefghijklmnopqrstuvwxyz\r\n");
                +
00077e e9ee     +LDI R30 , LOW ( 2 * _0x0 + ( 98 ) )
00077f e0f0     +LDI R31 , HIGH ( 2 * _0x0 + ( 98 ) )
                 	__POINTW1FN _0x0,98
000780 d389      	RCALL SUBOPT_0x4A
                 ; 0000 019D //    curah_hujan=TCNT1;                                    //ambil data curah hujan
                 ; 0000 019E     //data_kompas=read_adc(0);
                 ; 0000 019F     //ambil_data_kecepatan=0;while(!ambil_data_kecepatan);  //ambil data kecepatan angin
                 ; 0000 01A0     //printf("kecepatan = %d arah angin= %d\r\n",kecepatan_angin,data_kompas);
                 ; 0000 01A1     delay_ms(500);
000781 efa4      	LDI  R26,LOW(500)
000782 e0b1      	LDI  R27,HIGH(500)
000783 d40e      	RCALL _delay_ms
                 ; 0000 01A2     }break;
                 ; 0000 01A3     }
                 _0xB9:
                 ; 0000 01A4 }
000784 ce2b      	RJMP _0xB4
                 ; 0000 01A5 }
                 _0xE6:
000785 cfff      	RJMP _0xE6
                 	#ifndef __SLEEP_DEFINED__
                 	#endif
                 
                 	.CSEG
                 _putchar:
000786 93aa      	ST   -Y,R26
                 putchar0:
000787 9b5d           sbis usr,udre
000788 cffe           rjmp putchar0
000789 81e8           ld   r30,y
00078a b9ec           out  udr,r30
                 _0x20E0002:
00078b 9621      	ADIW R28,1
00078c 9508      	RET
                 _put_usart_G100:
00078d d200      	RCALL SUBOPT_0x5
00078e 81aa      	LDD  R26,Y+2
00078f dff6      	RCALL _putchar
000790 81a8      	LD   R26,Y
000791 81b9      	LDD  R27,Y+1
000792 d321      	RCALL SUBOPT_0x3B
                 _0x20E0001:
000793 9623      	ADIW R28,3
000794 9508      	RET
                 __print_G100:
000795 d1f8      	RCALL SUBOPT_0x5
000796 972c      	SBIW R28,12
000797 d6ca      	RCALL __SAVELOCR6
000798 e010      	LDI  R17,0
000799 89aa      	LDD  R26,Y+18
00079a 89bb      	LDD  R27,Y+18+1
00079b e0e0      	LDI  R30,LOW(0)
00079c e0f0      	LDI  R31,HIGH(0)
00079d 93ed      	ST   X+,R30
00079e 93fc      	ST   X,R31
                 _0x2000016:
00079f 8de8      	LDD  R30,Y+24
0007a0 8df9      	LDD  R31,Y+24+1
0007a1 9631      	ADIW R30,1
0007a2 8fe8      	STD  Y+24,R30
0007a3 8ff9      	STD  Y+24+1,R31
0007a4 9731      	SBIW R30,1
0007a5 91e4      	LPM  R30,Z
0007a6 2f2e      	MOV  R18,R30
0007a7 30e0      	CPI  R30,0
0007a8 f409      	BRNE PC+2
0007a9 c166      	RJMP _0x2000018
0007aa 2fe1      	MOV  R30,R17
0007ab 30e0      	CPI  R30,0
0007ac f431      	BRNE _0x200001C
0007ad 3225      	CPI  R18,37
0007ae f411      	BRNE _0x200001D
0007af e011      	LDI  R17,LOW(1)
0007b0 c001      	RJMP _0x200001E
                 _0x200001D:
0007b1 d35d      	RCALL SUBOPT_0x4B
                 _0x200001E:
0007b2 c15c      	RJMP _0x200001B
                 _0x200001C:
0007b3 30e1      	CPI  R30,LOW(0x1)
0007b4 f4b9      	BRNE _0x200001F
0007b5 3225      	CPI  R18,37
0007b6 f411      	BRNE _0x2000020
0007b7 d357      	RCALL SUBOPT_0x4B
0007b8 c155      	RJMP _0x20000E4
                 _0x2000020:
0007b9 e012      	LDI  R17,LOW(2)
0007ba e0e0      	LDI  R30,LOW(0)
0007bb 8be9      	STD  Y+17,R30
0007bc e000      	LDI  R16,LOW(0)
0007bd 322d      	CPI  R18,45
0007be f411      	BRNE _0x2000021
0007bf e001      	LDI  R16,LOW(1)
0007c0 c14e      	RJMP _0x200001B
                 _0x2000021:
0007c1 322b      	CPI  R18,43
0007c2 f419      	BRNE _0x2000022
0007c3 e2eb      	LDI  R30,LOW(43)
0007c4 8be9      	STD  Y+17,R30
0007c5 c149      	RJMP _0x200001B
                 _0x2000022:
0007c6 3220      	CPI  R18,32
0007c7 f419      	BRNE _0x2000023
0007c8 e2e0      	LDI  R30,LOW(32)
0007c9 8be9      	STD  Y+17,R30
0007ca c144      	RJMP _0x200001B
                 _0x2000023:
0007cb c002      	RJMP _0x2000024
                 _0x200001F:
0007cc 30e2      	CPI  R30,LOW(0x2)
0007cd f439      	BRNE _0x2000025
                 _0x2000024:
0007ce e050      	LDI  R21,LOW(0)
0007cf e013      	LDI  R17,LOW(3)
0007d0 3320      	CPI  R18,48
0007d1 f411      	BRNE _0x2000026
0007d2 6800      	ORI  R16,LOW(128)
0007d3 c13b      	RJMP _0x200001B
                 _0x2000026:
0007d4 c002      	RJMP _0x2000027
                 _0x2000025:
0007d5 30e3      	CPI  R30,LOW(0x3)
0007d6 f491      	BRNE _0x2000028
                 _0x2000027:
0007d7 3320      	CPI  R18,48
0007d8 f010      	BRLO _0x200002A
0007d9 332a      	CPI  R18,58
0007da f008      	BRLO _0x200002B
                 _0x200002A:
0007db c007      	RJMP _0x2000029
                 _0x200002B:
0007dc e0aa      	LDI  R26,LOW(10)
0007dd 9f5a      	MUL  R21,R26
0007de 2d50      	MOV  R21,R0
0007df 2fe2      	MOV  R30,R18
0007e0 53e0      	SUBI R30,LOW(48)
0007e1 0f5e      	ADD  R21,R30
0007e2 c12c      	RJMP _0x200001B
                 _0x2000029:
0007e3 e040      	LDI  R20,LOW(0)
0007e4 322e      	CPI  R18,46
0007e5 f411      	BRNE _0x200002C
0007e6 e014      	LDI  R17,LOW(4)
0007e7 c127      	RJMP _0x200001B
                 _0x200002C:
0007e8 c00e      	RJMP _0x200002D
                 _0x2000028:
0007e9 30e4      	CPI  R30,LOW(0x4)
0007ea f491      	BRNE _0x200002F
0007eb 3320      	CPI  R18,48
0007ec f010      	BRLO _0x2000031
0007ed 332a      	CPI  R18,58
0007ee f008      	BRLO _0x2000032
                 _0x2000031:
0007ef c007      	RJMP _0x2000030
                 _0x2000032:
0007f0 e0aa      	LDI  R26,LOW(10)
0007f1 9f4a      	MUL  R20,R26
0007f2 2d40      	MOV  R20,R0
0007f3 2fe2      	MOV  R30,R18
0007f4 53e0      	SUBI R30,LOW(48)
0007f5 0f4e      	ADD  R20,R30
0007f6 c118      	RJMP _0x200001B
                 _0x2000030:
                 _0x200002D:
0007f7 362c      	CPI  R18,108
0007f8 f419      	BRNE _0x2000033
0007f9 6002      	ORI  R16,LOW(2)
0007fa e015      	LDI  R17,LOW(5)
0007fb c113      	RJMP _0x200001B
                 _0x2000033:
0007fc c003      	RJMP _0x2000034
                 _0x200002F:
0007fd 30e5      	CPI  R30,LOW(0x5)
0007fe f009      	BREQ PC+2
0007ff c10f      	RJMP _0x200001B
                 _0x2000034:
000800 2fe2      	MOV  R30,R18
000801 36e3      	CPI  R30,LOW(0x63)
000802 f439      	BRNE _0x2000039
000803 d312      	RCALL SUBOPT_0x4C
000804 d314      	RCALL SUBOPT_0x4D
000805 d310      	RCALL SUBOPT_0x4C
000806 81a4      	LDD  R26,Z+4
000807 93aa      	ST   -Y,R26
000808 d314      	RCALL SUBOPT_0x4E
000809 c104      	RJMP _0x200003A
                 _0x2000039:
00080a 37e3      	CPI  R30,LOW(0x73)
00080b f429      	BRNE _0x200003C
00080c d316      	RCALL SUBOPT_0x4F
00080d d317      	RCALL SUBOPT_0x50
00080e d14c      	RCALL _strlen
00080f 2f1e      	MOV  R17,R30
000810 c007      	RJMP _0x200003D
                 _0x200003C:
000811 37e0      	CPI  R30,LOW(0x70)
000812 f489      	BRNE _0x200003F
000813 d30f      	RCALL SUBOPT_0x4F
000814 d310      	RCALL SUBOPT_0x50
000815 d150      	RCALL _strlenf
000816 2f1e      	MOV  R17,R30
000817 6008      	ORI  R16,LOW(8)
                 _0x200003D:
000818 770f      	ANDI R16,LOW(127)
000819 3040      	CPI  R20,0
00081a f011      	BREQ _0x2000041
00081b 1741      	CP   R20,R17
00081c f008      	BRLO _0x2000042
                 _0x2000041:
00081d c001      	RJMP _0x2000040
                 _0x2000042:
00081e 2f14      	MOV  R17,R20
                 _0x2000040:
00081f e040      	LDI  R20,LOW(0)
000820 e0e0      	LDI  R30,LOW(0)
000821 8be8      	STD  Y+16,R30
000822 e030      	LDI  R19,LOW(0)
000823 c061      	RJMP _0x2000043
                 _0x200003F:
000824 36e4      	CPI  R30,LOW(0x64)
000825 f011      	BREQ _0x2000046
000826 36e9      	CPI  R30,LOW(0x69)
000827 f411      	BRNE _0x2000047
                 _0x2000046:
000828 6004      	ORI  R16,LOW(4)
000829 c002      	RJMP _0x2000048
                 _0x2000047:
00082a 37e5      	CPI  R30,LOW(0x75)
00082b f491      	BRNE _0x2000049
                 _0x2000048:
00082c e0ea      	LDI  R30,LOW(10)
00082d 8be8      	STD  Y+16,R30
00082e ff01      	SBRS R16,1
00082f c007      	RJMP _0x200004A
                +
000830 e0e0     +LDI R30 , LOW ( 0x3B9ACA00 )
000831 ecfa     +LDI R31 , HIGH ( 0x3B9ACA00 )
000832 e96a     +LDI R22 , BYTE3 ( 0x3B9ACA00 )
000833 e37b     +LDI R23 , BYTE4 ( 0x3B9ACA00 )
                 	__GETD1N 0x3B9ACA00
000834 d19c      	RCALL SUBOPT_0x15
000835 e01a      	LDI  R17,LOW(10)
000836 c01f      	RJMP _0x200004B
                 _0x200004A:
                +
000837 e1e0     +LDI R30 , LOW ( 0x2710 )
000838 e2f7     +LDI R31 , HIGH ( 0x2710 )
000839 e060     +LDI R22 , BYTE3 ( 0x2710 )
00083a e070     +LDI R23 , BYTE4 ( 0x2710 )
                 	__GETD1N 0x2710
00083b d195      	RCALL SUBOPT_0x15
00083c e015      	LDI  R17,LOW(5)
00083d c018      	RJMP _0x200004B
                 _0x2000049:
00083e 35e8      	CPI  R30,LOW(0x58)
00083f f411      	BRNE _0x200004D
000840 6008      	ORI  R16,LOW(8)
000841 c003      	RJMP _0x200004E
                 _0x200004D:
000842 37e8      	CPI  R30,LOW(0x78)
000843 f009      	BREQ PC+2
000844 c0c9      	RJMP _0x200008C
                 _0x200004E:
000845 e1e0      	LDI  R30,LOW(16)
000846 8be8      	STD  Y+16,R30
000847 ff01      	SBRS R16,1
000848 c007      	RJMP _0x2000050
                +
000849 e0e0     +LDI R30 , LOW ( 0x10000000 )
00084a e0f0     +LDI R31 , HIGH ( 0x10000000 )
00084b e060     +LDI R22 , BYTE3 ( 0x10000000 )
00084c e170     +LDI R23 , BYTE4 ( 0x10000000 )
                 	__GETD1N 0x10000000
00084d d183      	RCALL SUBOPT_0x15
00084e e018      	LDI  R17,LOW(8)
00084f c006      	RJMP _0x200004B
                 _0x2000050:
                +
000850 e0e0     +LDI R30 , LOW ( 0x1000 )
000851 e1f0     +LDI R31 , HIGH ( 0x1000 )
000852 e060     +LDI R22 , BYTE3 ( 0x1000 )
000853 e070     +LDI R23 , BYTE4 ( 0x1000 )
                 	__GETD1N 0x1000
000854 d17c      	RCALL SUBOPT_0x15
000855 e014      	LDI  R17,LOW(4)
                 _0x200004B:
000856 3040      	CPI  R20,0
000857 f011      	BREQ _0x2000051
000858 770f      	ANDI R16,LOW(127)
000859 c001      	RJMP _0x2000052
                 _0x2000051:
00085a e041      	LDI  R20,LOW(1)
                 _0x2000052:
00085b ff01      	SBRS R16,1
00085c c004      	RJMP _0x2000053
00085d d2c5      	RCALL SUBOPT_0x4F
00085e d2cf      	RCALL SUBOPT_0x51
00085f d5d7      	RCALL __GETD1P
000860 c00b      	RJMP _0x20000E5
                 _0x2000053:
000861 ff02      	SBRS R16,2
000862 c005      	RJMP _0x2000055
000863 d2bf      	RCALL SUBOPT_0x4F
000864 d2c9      	RCALL SUBOPT_0x51
000865 d5cd      	RCALL __GETW1P
000866 d1db      	RCALL SUBOPT_0x2B
000867 c004      	RJMP _0x20000E5
                 _0x2000055:
000868 d2ba      	RCALL SUBOPT_0x4F
000869 d2c4      	RCALL SUBOPT_0x51
00086a d5c8      	RCALL __GETW1P
00086b d1bc      	RCALL SUBOPT_0x26
                 _0x20000E5:
                +
00086c 87ec     +STD Y + 12 , R30
00086d 87fd     +STD Y + 12 + 1 , R31
00086e 876e     +STD Y + 12 + 2 , R22
00086f 877f     +STD Y + 12 + 3 , R23
                 	__PUTD1S 12
000870 ff02      	SBRS R16,2
000871 c012      	RJMP _0x2000057
000872 85af      	LDD  R26,Y+15
000873 23aa      	TST  R26
000874 f442      	BRPL _0x2000058
                +
000875 85ec     +LDD R30 , Y + 12
000876 85fd     +LDD R31 , Y + 12 + 1
000877 856e     +LDD R22 , Y + 12 + 2
000878 857f     +LDD R23 , Y + 12 + 3
                 	__GETD1S 12
000879 d4e6      	RCALL __ANEGD1
00087a d2b7      	RCALL SUBOPT_0x52
00087b e2ed      	LDI  R30,LOW(45)
00087c 8be9      	STD  Y+17,R30
                 _0x2000058:
00087d 89e9      	LDD  R30,Y+17
00087e 30e0      	CPI  R30,0
00087f f019      	BREQ _0x2000059
000880 5f1f      	SUBI R17,-LOW(1)
000881 5f4f      	SUBI R20,-LOW(1)
000882 c001      	RJMP _0x200005A
                 _0x2000059:
000883 7f0b      	ANDI R16,LOW(251)
                 _0x200005A:
                 _0x2000057:
000884 2f34      	MOV  R19,R20
                 _0x2000043:
000885 fd00      	SBRC R16,0
000886 c013      	RJMP _0x200005B
                 _0x200005C:
000887 1715      	CP   R17,R21
000888 f410      	BRSH _0x200005F
000889 1735      	CP   R19,R21
00088a f008      	BRLO _0x2000060
                 _0x200005F:
00088b c00e      	RJMP _0x200005E
                 _0x2000060:
00088c ff07      	SBRS R16,7
00088d c008      	RJMP _0x2000061
00088e ff02      	SBRS R16,2
00088f c004      	RJMP _0x2000062
000890 7f0b      	ANDI R16,LOW(251)
000891 8929      	LDD  R18,Y+17
000892 5011      	SUBI R17,LOW(1)
000893 c001      	RJMP _0x2000063
                 _0x2000062:
000894 e320      	LDI  R18,LOW(48)
                 _0x2000063:
000895 c001      	RJMP _0x2000064
                 _0x2000061:
000896 e220      	LDI  R18,LOW(32)
                 _0x2000064:
000897 d277      	RCALL SUBOPT_0x4B
000898 5051      	SUBI R21,LOW(1)
000899 cfed      	RJMP _0x200005C
                 _0x200005E:
                 _0x200005B:
                 _0x2000065:
00089a 1714      	CP   R17,R20
00089b f488      	BRSH _0x2000067
00089c 6100      	ORI  R16,LOW(16)
00089d ff02      	SBRS R16,2
00089e c006      	RJMP _0x2000068
00089f d297      	RCALL SUBOPT_0x53
0008a0 3050      	CPI  R21,0
0008a1 f009      	BREQ _0x2000069
0008a2 5051      	SUBI R21,LOW(1)
                 _0x2000069:
0008a3 5011      	SUBI R17,LOW(1)
0008a4 5041      	SUBI R20,LOW(1)
                 _0x2000068:
0008a5 e3e0      	LDI  R30,LOW(48)
0008a6 93ea      	ST   -Y,R30
0008a7 d275      	RCALL SUBOPT_0x4E
0008a8 3050      	CPI  R21,0
0008a9 f009      	BREQ _0x200006A
0008aa 5051      	SUBI R21,LOW(1)
                 _0x200006A:
0008ab 5041      	SUBI R20,LOW(1)
0008ac cfed      	RJMP _0x2000065
                 _0x2000067:
0008ad 2f31      	MOV  R19,R17
0008ae 89e8      	LDD  R30,Y+16
0008af 30e0      	CPI  R30,0
0008b0 f4b1      	BRNE _0x200006B
                 _0x200006C:
0008b1 3030      	CPI  R19,0
0008b2 f099      	BREQ _0x200006E
0008b3 ff03      	SBRS R16,3
0008b4 c006      	RJMP _0x200006F
0008b5 81ee      	LDD  R30,Y+6
0008b6 81ff      	LDD  R31,Y+6+1
0008b7 9125      	LPM  R18,Z+
0008b8 83ee      	STD  Y+6,R30
0008b9 83ff      	STD  Y+6+1,R31
0008ba c005      	RJMP _0x2000070
                 _0x200006F:
0008bb 81ae      	LDD  R26,Y+6
0008bc 81bf      	LDD  R27,Y+6+1
0008bd 912d      	LD   R18,X+
0008be 83ae      	STD  Y+6,R26
0008bf 83bf      	STD  Y+6+1,R27
                 _0x2000070:
0008c0 d24e      	RCALL SUBOPT_0x4B
0008c1 3050      	CPI  R21,0
0008c2 f009      	BREQ _0x2000071
0008c3 5051      	SUBI R21,LOW(1)
                 _0x2000071:
0008c4 5031      	SUBI R19,LOW(1)
0008c5 cfeb      	RJMP _0x200006C
                 _0x200006E:
0008c6 c03e      	RJMP _0x2000072
                 _0x200006B:
                 _0x2000074:
0008c7 d273      	RCALL SUBOPT_0x54
0008c8 d51b      	RCALL __DIVD21U
0008c9 2f2e      	MOV  R18,R30
0008ca 302a      	CPI  R18,10
0008cb f030      	BRLO _0x2000076
0008cc ff03      	SBRS R16,3
0008cd c002      	RJMP _0x2000077
0008ce 5c29      	SUBI R18,-LOW(55)
0008cf c001      	RJMP _0x2000078
                 _0x2000077:
0008d0 5a29      	SUBI R18,-LOW(87)
                 _0x2000078:
0008d1 c001      	RJMP _0x2000079
                 _0x2000076:
0008d2 5d20      	SUBI R18,-LOW(48)
                 _0x2000079:
0008d3 fd04      	SBRC R16,4
0008d4 c01e      	RJMP _0x200007B
0008d5 3321      	CPI  R18,49
0008d6 f448      	BRSH _0x200007D
0008d7 d100      	RCALL SUBOPT_0x17
                +
0008d8 30a1     +CPI R26 , LOW ( 0x1 )
0008d9 e0e0     +LDI R30 , HIGH ( 0x1 )
0008da 07be     +CPC R27 , R30
0008db e0e0     +LDI R30 , BYTE3 ( 0x1 )
0008dc 078e     +CPC R24 , R30
0008dd e0e0     +LDI R30 , BYTE4 ( 0x1 )
0008de 079e     +CPC R25 , R30
                 	__CPD2N 0x1
0008df f409      	BRNE _0x200007C
                 _0x200007D:
0008e0 c00b      	RJMP _0x200007F
                 _0x200007C:
0008e1 1743      	CP   R20,R19
0008e2 f440      	BRSH _0x20000E6
0008e3 1753      	CP   R21,R19
0008e4 f010      	BRLO _0x2000082
0008e5 ff00      	SBRS R16,0
0008e6 c001      	RJMP _0x2000083
                 _0x2000082:
0008e7 c00f      	RJMP _0x2000081
                 _0x2000083:
0008e8 e220      	LDI  R18,LOW(32)
0008e9 ff07      	SBRS R16,7
0008ea c008      	RJMP _0x2000084
                 _0x20000E6:
0008eb e320      	LDI  R18,LOW(48)
                 _0x200007F:
0008ec 6100      	ORI  R16,LOW(16)
0008ed ff02      	SBRS R16,2
0008ee c004      	RJMP _0x2000085
0008ef d247      	RCALL SUBOPT_0x53
0008f0 3050      	CPI  R21,0
0008f1 f009      	BREQ _0x2000086
0008f2 5051      	SUBI R21,LOW(1)
                 _0x2000086:
                 _0x2000085:
                 _0x2000084:
                 _0x200007B:
0008f3 d21b      	RCALL SUBOPT_0x4B
0008f4 3050      	CPI  R21,0
0008f5 f009      	BREQ _0x2000087
0008f6 5051      	SUBI R21,LOW(1)
                 _0x2000087:
                 _0x2000081:
0008f7 5031      	SUBI R19,LOW(1)
0008f8 d242      	RCALL SUBOPT_0x54
0008f9 d514      	RCALL __MODD21U
0008fa d237      	RCALL SUBOPT_0x52
0008fb 89e8      	LDD  R30,Y+16
0008fc d0db      	RCALL SUBOPT_0x17
0008fd 27ff      	CLR  R31
0008fe 2766      	CLR  R22
0008ff 2777      	CLR  R23
000900 d4e3      	RCALL __DIVD21U
000901 d0cf      	RCALL SUBOPT_0x15
000902 d0fb      	RCALL SUBOPT_0x1F
000903 d55a      	RCALL __CPD10
000904 f611      	BRNE _0x2000074
                 _0x2000072:
000905 ff00      	SBRS R16,0
000906 c007      	RJMP _0x2000088
                 _0x2000089:
000907 3050      	CPI  R21,0
000908 f029      	BREQ _0x200008B
000909 5051      	SUBI R21,LOW(1)
00090a e2e0      	LDI  R30,LOW(32)
00090b 93ea      	ST   -Y,R30
00090c d210      	RCALL SUBOPT_0x4E
00090d cff9      	RJMP _0x2000089
                 _0x200008B:
                 _0x2000088:
                 _0x200008C:
                 _0x200003A:
                 _0x20000E4:
00090e e010      	LDI  R17,LOW(0)
                 _0x200001B:
00090f ce8f      	RJMP _0x2000016
                 _0x2000018:
000910 89aa      	LDD  R26,Y+18
000911 89bb      	LDD  R27,Y+18+1
000912 d520      	RCALL __GETW1P
000913 d555      	RCALL __LOADLOCR6
000914 966a      	ADIW R28,26
000915 9508      	RET
                 _printf:
000916 92ff      	PUSH R15
000917 2ef8      	MOV  R15,R24
000918 9726      	SBIW R28,6
000919 d54c      	RCALL __SAVELOCR2
00091a 01de      	MOVW R26,R28
00091b 9614      	ADIW R26,4
00091c d422      	RCALL __ADDW2R15
00091d 018d      	MOVW R16,R26
00091e e0e0      	LDI  R30,LOW(0)
00091f 83ec      	STD  Y+4,R30
000920 83ed      	STD  Y+4+1,R30
000921 83ee      	STD  Y+6,R30
000922 83ef      	STD  Y+6+1,R30
000923 01de      	MOVW R26,R28
000924 9618      	ADIW R26,8
000925 d419      	RCALL __ADDW2R15
000926 d50c      	RCALL __GETW1P
000927 d0cf      	RCALL SUBOPT_0x1D
000928 931a      	ST   -Y,R17
000929 930a      	ST   -Y,R16
00092a e8ed      	LDI  R30,LOW(_put_usart_G100)
00092b e0f7      	LDI  R31,HIGH(_put_usart_G100)
00092c d0ca      	RCALL SUBOPT_0x1D
00092d 01de      	MOVW R26,R28
00092e 9618      	ADIW R26,8
00092f de65      	RCALL __print_G100
000930 d53c      	RCALL __LOADLOCR2
000931 9628      	ADIW R28,8
000932 90ff      	POP  R15
000933 9508      	RET
                 
                 	.CSEG
                 
                 	.DSEG
                 
                 	.CSEG
                 
                 	.CSEG
                 _bcd2bin:
000934 93aa      	ST   -Y,R26
000935 81e8          ld   r30,y
000936 95e2          swap r30
000937 70ef          andi r30,0xf
000938 2fae          mov  r26,r30
000939 0faa          lsl  r26
00093a 0faa          lsl  r26
00093b 0fea          add  r30,r26
00093c 0fee          lsl  r30
00093d 91a9          ld   r26,y+
00093e 70af          andi r26,0xf
00093f 0fea          add  r30,r26
000940 9508          ret
                 _bin2bcd:
000941 93aa      	ST   -Y,R26
000942 91a9          ld   r26,y+
000943 27ee          clr  r30
                 bin2bcd0:
000944 50aa          subi r26,10
000945 f012          brmi bin2bcd1
000946 5fe0          subi r30,-16
000947 cffc          rjmp bin2bcd0
                 bin2bcd1:
000948 5fa6          subi r26,-10
000949 0fea          add  r30,r26
00094a 9508          ret
                 	#ifndef __SLEEP_DEFINED__
                 	#endif
                 
                 	.CSEG
                 _sleep_enable:
00094b b7e5         in   r30,power_ctrl_reg
00094c 68e0         sbr  r30,__se_bit
00094d bfe5         out  power_ctrl_reg,r30
00094e 9508      	RET
                 _sleep_disable:
00094f b7e5         in   r30,power_ctrl_reg
000950 77ef         cbr  r30,__se_bit
000951 bfe5         out  power_ctrl_reg,r30
000952 9508      	RET
                 _idle:
000953 b7e5         in   r30,power_ctrl_reg
000954 78ef         cbr  r30,__sm_mask
000955 bfe5         out  power_ctrl_reg,r30
000956 b7ef         in   r30,sreg
000957 9478         sei
000958 9588         sleep
000959 bfef         out  sreg,r30
00095a 9508      	RET
                 
                 	.CSEG
                 
                 	.CSEG
                 
                 	.CSEG
                 _strlen:
00095b d032      	RCALL SUBOPT_0x5
00095c 91a9          ld   r26,y+
00095d 91b9          ld   r27,y+
00095e 27ee          clr  r30
00095f 27ff          clr  r31
                 strlen0:
000960 916d          ld   r22,x+
000961 2366          tst  r22
000962 f011          breq strlen1
000963 9631          adiw r30,1
000964 cffb          rjmp strlen0
                 strlen1:
000965 9508          ret
                 _strlenf:
000966 d027      	RCALL SUBOPT_0x5
000967 27aa          clr  r26
000968 27bb          clr  r27
000969 91e9          ld   r30,y+
00096a 91f9          ld   r31,y+
                 strlenf0:
00096b 9005      	lpm  r0,z+
00096c 2000          tst  r0
00096d f011          breq strlenf1
00096e 9611          adiw r26,1
00096f cffb          rjmp strlenf0
                 strlenf1:
000970 01fd          movw r30,r26
000971 9508          ret
                 
                 	.DSEG
                 _nilaisuhu:
000160           	.BYTE 0x4
                 _mb:
000164           	.BYTE 0x2
                 _mc:
000166           	.BYTE 0x2
                 _md:
000168           	.BYTE 0x2
                 _ac4:
00016a           	.BYTE 0x2
                 _ac5:
00016c           	.BYTE 0x2
                 _ac6:
00016e           	.BYTE 0x2
                 _x1:
000170           	.BYTE 0x4
                 _x2:
000174           	.BYTE 0x4
                 _b5:
000178           	.BYTE 0x4
                 _b3:
00017c           	.BYTE 0x4
                 _x3:
000180           	.BYTE 0x4
                 _b6:
000184           	.BYTE 0x4
                 _b7:
000188           	.BYTE 0x4
                 _b4:
00018c           	.BYTE 0x4
                 _up:
000190           	.BYTE 0x4
                 _ut:
000194           	.BYTE 0x4
                 _pressure:
000198           	.BYTE 0x4
                 _ac1_hi:
00019c           	.BYTE 0x2
                 _ac1_lo:
00019e           	.BYTE 0x2
                 _ac2_hi:
0001a0           	.BYTE 0x2
                 _ac2_lo:
0001a2           	.BYTE 0x2
                 _ac3_hi:
0001a4           	.BYTE 0x2
                 _ac3_lo:
0001a6           	.BYTE 0x2
                 _ac4_hi:
0001a8           	.BYTE 0x2
                 _ac4_lo:
0001aa           	.BYTE 0x2
                 _ac5_hi:
0001ac           	.BYTE 0x2
                 _ac5_lo:
0001ae           	.BYTE 0x2
                 _ac6_hi:
0001b0           	.BYTE 0x2
                 _ac6_lo:
0001b2           	.BYTE 0x2
                 _b1_hi:
0001b4           	.BYTE 0x2
                 _b1_lo:
0001b6           	.BYTE 0x2
                 _b2_hi:
0001b8           	.BYTE 0x2
                 _b2_lo:
0001ba           	.BYTE 0x2
                 _mb_hi:
0001bc           	.BYTE 0x2
                 _mb_lo:
0001be           	.BYTE 0x2
                 _mc_hi:
0001c0           	.BYTE 0x2
                 _mc_lo:
0001c2           	.BYTE 0x2
                 _md_hi:
0001c4           	.BYTE 0x2
                 _md_lo:
0001c6           	.BYTE 0x2
                 _slot:
0001c8           	.BYTE 0x1
                 _state:
0001c9           	.BYTE 0x1
                 _i:
0001ca           	.BYTE 0x1
                 _timer_rto:
0001cb           	.BYTE 0x1
                 _curah_hujan:
0001cc           	.BYTE 0x2
                 _encoder:
0001ce           	.BYTE 0x2
                 _kecepatan_angin:
0001d0           	.BYTE 0x2
                 _data_suhu:
0001d2           	.BYTE 0x4
                 _data_kelembapan:
0001d6           	.BYTE 0x4
                 _data_tekanan:
0001da           	.BYTE 0x4
                 _data_kompas:
0001de           	.BYTE 0x2
                 _jam:
0001e0           	.BYTE 0x1
                 _menit:
0001e1           	.BYTE 0x1
                 _detik:
0001e2           	.BYTE 0x1
                 _tanggal:
0001e3           	.BYTE 0x1
                 _bulan:
0001e4           	.BYTE 0x1
                 _tahun:
0001e5           	.BYTE 0x1
                 _jam_sinkron:
0001e6           	.BYTE 0x1
                 _menit_sinkron:
0001e7           	.BYTE 0x1
                 _detik_sinkron:
0001e8           	.BYTE 0x1
                 _tanggal_sinkron:
0001e9           	.BYTE 0x1
                 _bulan_sinkron:
0001ea           	.BYTE 0x1
                 _tahun_sinkron:
0001eb           	.BYTE 0x1
                 _jam_alarm:
0001ec           	.BYTE 0x1
                 _menit_alarm:
0001ed           	.BYTE 0x1
                 _data_received_sukses:
0001ee           	.BYTE 0x1
                 _delay:
0001ef           	.BYTE 0x2
                 _delay_timer:
0001f1           	.BYTE 0x4
                 _troughput:
0001f5           	.BYTE 0x4
                 _data_received_kirim:
0001f9           	.BYTE 0x2
                 _delay_timer_kirim:
0001fb           	.BYTE 0x2
                 _troughput_kirim:
0001fd           	.BYTE 0x2
                 __seed_G101:
0001ff           	.BYTE 0x4
                 
                 	.CSEG
                 ;OPTIMIZER ADDED SUBROUTINE, CALLED 7 TIMES, CODE SIZE REDUCTION:10 WORDS
                 SUBOPT_0x0:
000972 d1d3      	RCALL _i2c_start
000973 eda0      	LDI  R26,LOW(208)
000974 c205      	RJMP _i2c_write
                 
                 ;OPTIMIZER ADDED SUBROUTINE, CALLED 3 TIMES, CODE SIZE REDUCTION:2 WORDS
                 SUBOPT_0x1:
000975 d204      	RCALL _i2c_write
000976 81a8      	LD   R26,Y
000977 cfc9      	RJMP _bin2bcd
                 
                 ;OPTIMIZER ADDED SUBROUTINE, CALLED 7 TIMES, CODE SIZE REDUCTION:4 WORDS
                 SUBOPT_0x2:
000978 2fae      	MOV  R26,R30
000979 c200      	RJMP _i2c_write
                 
                 ;OPTIMIZER ADDED SUBROUTINE, CALLED 2 TIMES, CODE SIZE REDUCTION:5 WORDS
                 SUBOPT_0x3:
00097a d1ff      	RCALL _i2c_write
00097b d1ca      	RCALL _i2c_start
00097c eda1      	LDI  R26,LOW(209)
00097d d1fc      	RCALL _i2c_write
00097e e0a1      	LDI  R26,LOW(1)
00097f d1df      	RCALL _i2c_read
000980 2fae      	MOV  R26,R30
000981 cfb2      	RJMP _bcd2bin
                 
                 ;OPTIMIZER ADDED SUBROUTINE, CALLED 2 TIMES, CODE SIZE REDUCTION:9 WORDS
                 SUBOPT_0x4:
000982 93ec      	ST   X,R30
000983 e0a1      	LDI  R26,LOW(1)
000984 d1da      	RCALL _i2c_read
000985 2fae      	MOV  R26,R30
000986 dfad      	RCALL _bcd2bin
000987 81aa      	LDD  R26,Y+2
000988 81bb      	LDD  R27,Y+2+1
000989 93ec      	ST   X,R30
00098a e0a0      	LDI  R26,LOW(0)
00098b d1d3      	RCALL _i2c_read
00098c 2fae      	MOV  R26,R30
00098d cfa6      	RJMP _bcd2bin
                 
                 ;OPTIMIZER ADDED SUBROUTINE, CALLED 8 TIMES, CODE SIZE REDUCTION:5 WORDS
                 SUBOPT_0x5:
00098e 93ba      	ST   -Y,R27
00098f 93aa      	ST   -Y,R26
000990 9508      	RET
                 
                 ;OPTIMIZER ADDED SUBROUTINE, CALLED 7 TIMES, CODE SIZE REDUCTION:16 WORDS
                 SUBOPT_0x6:
000991 9aab      	SBI  0x15,3
                +
000992 e081     +LDI R24 , LOW ( 1 )
                +__DELAY_USB_LOOP :
000993 958a     +DEC R24
000994 f7f1     +BRNE __DELAY_USB_LOOP
                 	__DELAY_USB 1
000995 9508      	RET
                 
                 ;OPTIMIZER ADDED SUBROUTINE, CALLED 2 TIMES, CODE SIZE REDUCTION:5 WORDS
                 SUBOPT_0x7:
000996 2fa1      	MOV  R26,R17
000997 e0b0      	LDI  R27,0
000998 e0e2      	LDI  R30,LOW(2)
000999 e0f0      	LDI  R31,HIGH(2)
00099a d444      	RCALL __DIVW21
00099b 2f1e      	MOV  R17,R30
00099c 9508      	RET
                 
                 ;OPTIMIZER ADDED SUBROUTINE, CALLED 4 TIMES, CODE SIZE REDUCTION:7 WORDS
                 SUBOPT_0x8:
                +
00099d e081     +LDI R24 , LOW ( 1 )
                +__DELAY_USB_LOOP :
00099e 958a     +DEC R24
00099f f7f1     +BRNE __DELAY_USB_LOOP
                 	__DELAY_USB 1
0009a0 98ab      	CBI  0x15,3
0009a1 9508      	RET
                 
                 ;OPTIMIZER ADDED SUBROUTINE, CALLED 2 TIMES, CODE SIZE REDUCTION:1 WORDS
                 SUBOPT_0x9:
0009a2 98ab      	CBI  0x15,3
                +
0009a3 e081     +LDI R24 , LOW ( 1 )
                +__DELAY_USB_LOOP :
0009a4 958a     +DEC R24
0009a5 f7f1     +BRNE __DELAY_USB_LOOP
                 	__DELAY_USB 1
0009a6 9508      	RET
                 
                 ;OPTIMIZER ADDED SUBROUTINE, CALLED 5 TIMES, CODE SIZE REDUCTION:2 WORDS
                 SUBOPT_0xA:
0009a7 e0a1      	LDI  R26,LOW(1)
0009a8 c761      	RJMP _baca_SHT
                 
                 ;OPTIMIZER ADDED SUBROUTINE, CALLED 5 TIMES, CODE SIZE REDUCTION:2 WORDS
                 SUBOPT_0xB:
                +
0009a9 e020     +LDI R18 , LOW ( 0 )
0009aa e030     +LDI R19 , HIGH ( 0 )
                 	__GETWRN 18,19,0
0009ab 9508      	RET
                 
                 ;OPTIMIZER ADDED SUBROUTINE, CALLED 2 TIMES, CODE SIZE REDUCTION:2 WORDS
                 SUBOPT_0xC:
0009ac 81ec      	LDD  R30,Y+4
0009ad e0f0      	LDI  R31,0
0009ae 9730      	SBIW R30,0
0009af 9508      	RET
                 
                 ;OPTIMIZER ADDED SUBROUTINE, CALLED 2 TIMES, CODE SIZE REDUCTION:3 WORDS
                 SUBOPT_0xD:
0009b0 d73d      	RCALL _tulis_SHT
0009b1 e0f0      	LDI  R31,0
                +
0009b2 0f0e     +ADD R16 , R30
0009b3 1f1f     +ADC R17 , R31
                 	__ADDWRR 16,17,30,31
0009b4 9508      	RET
                 
                 ;OPTIMIZER ADDED SUBROUTINE, CALLED 4 TIMES, CODE SIZE REDUCTION:4 WORDS
                 SUBOPT_0xE:
0009b5 30e1      	CPI  R30,LOW(0x1)
0009b6 e0a0      	LDI  R26,HIGH(0x1)
0009b7 07fa      	CPC  R31,R26
0009b8 9508      	RET
                 
                 ;OPTIMIZER ADDED SUBROUTINE, CALLED 4 TIMES, CODE SIZE REDUCTION:1 WORDS
                 SUBOPT_0xF:
0009b9 2f2e      	MOV  R18,R30
0009ba 2733      	CLR  R19
0009bb 9508      	RET
                 
                 ;OPTIMIZER ADDED SUBROUTINE, CALLED 12 TIMES, CODE SIZE REDUCTION:9 WORDS
                 SUBOPT_0x10:
0009bc 2bea      	OR   R30,R26
0009bd 2bfb      	OR   R31,R27
0009be 9508      	RET
                 
                 ;OPTIMIZER ADDED SUBROUTINE, CALLED 2 TIMES, CODE SIZE REDUCTION:1 WORDS
                 SUBOPT_0x11:
                +
0009bf 91e0 0162+LDS R30 , _nilaisuhu + ( 2 )
0009c1 91f0 0163+LDS R31 , _nilaisuhu + ( 2 ) + 1
                 	__GETW1MN _nilaisuhu,2
0009c3 9508      	RET
                 
                 ;OPTIMIZER ADDED SUBROUTINE, CALLED 2 TIMES, CODE SIZE REDUCTION:1 WORDS
                 SUBOPT_0x12:
                +
0009c4 e0aa     +LDI R26 , LOW ( 0x3C23D70A )
0009c5 edb7     +LDI R27 , HIGH ( 0x3C23D70A )
0009c6 e283     +LDI R24 , BYTE3 ( 0x3C23D70A )
0009c7 e39c     +LDI R25 , BYTE4 ( 0x3C23D70A )
                 	__GETD2N 0x3C23D70A
0009c8 9508      	RET
                 
                 ;OPTIMIZER ADDED SUBROUTINE, CALLED 13 TIMES, CODE SIZE REDUCTION:10 WORDS
                 SUBOPT_0x13:
0009c9 01df      	MOVW R26,R30
0009ca 01cb      	MOVW R24,R22
0009cb 9508      	RET
                 
                 ;OPTIMIZER ADDED SUBROUTINE, CALLED 3 TIMES, CODE SIZE REDUCTION:4 WORDS
                 SUBOPT_0x14:
                +
0009cc 85ee     +LDD R30 , Y + 14
0009cd 85ff     +LDD R31 , Y + 14 + 1
0009ce 8968     +LDD R22 , Y + 14 + 2
0009cf 8979     +LDD R23 , Y + 14 + 3
                 	__GETD1S 14
0009d0 9508      	RET
                 
                 ;OPTIMIZER ADDED SUBROUTINE, CALLED 8 TIMES, CODE SIZE REDUCTION:19 WORDS
                 SUBOPT_0x15:
                +
0009d1 87e8     +STD Y + 8 , R30
0009d2 87f9     +STD Y + 8 + 1 , R31
0009d3 876a     +STD Y + 8 + 2 , R22
0009d4 877b     +STD Y + 8 + 3 , R23
                 	__PUTD1S 8
0009d5 9508      	RET
                 
                 ;OPTIMIZER ADDED SUBROUTINE, CALLED 2 TIMES, CODE SIZE REDUCTION:1 WORDS
                 SUBOPT_0x16:
0009d6 d46b      	RCALL __GETD1S0
0009d7 9508      	RET
                 
                 ;OPTIMIZER ADDED SUBROUTINE, CALLED 3 TIMES, CODE SIZE REDUCTION:4 WORDS
                 SUBOPT_0x17:
                +
0009d8 85a8     +LDD R26 , Y + 8
0009d9 85b9     +LDD R27 , Y + 8 + 1
0009da 858a     +LDD R24 , Y + 8 + 2
0009db 859b     +LDD R25 , Y + 8 + 3
                 	__GETD2S 8
0009dc 9508      	RET
                 
                 ;OPTIMIZER ADDED SUBROUTINE, CALLED 4 TIMES, CODE SIZE REDUCTION:7 WORDS
                 SUBOPT_0x18:
                +
0009dd 83ec     +STD Y + 4 , R30
0009de 83fd     +STD Y + 4 + 1 , R31
0009df 836e     +STD Y + 4 + 2 , R22
0009e0 837f     +STD Y + 4 + 3 , R23
                 	__PUTD1S 4
0009e1 9508      	RET
                 
                 ;OPTIMIZER ADDED SUBROUTINE, CALLED 2 TIMES, CODE SIZE REDUCTION:1 WORDS
                 SUBOPT_0x19:
                +
0009e2 81ac     +LDD R26 , Y + 4
0009e3 81bd     +LDD R27 , Y + 4 + 1
0009e4 818e     +LDD R24 , Y + 4 + 2
0009e5 819f     +LDD R25 , Y + 4 + 3
                 	__GETD2S 4
0009e6 9508      	RET
                 
                 ;OPTIMIZER ADDED SUBROUTINE, CALLED 2 TIMES, CODE SIZE REDUCTION:1 WORDS
                 SUBOPT_0x1A:
                +
0009e7 e0e0     +LDI R30 , LOW ( 0x42C80000 )
0009e8 e0f0     +LDI R31 , HIGH ( 0x42C80000 )
0009e9 ec68     +LDI R22 , BYTE3 ( 0x42C80000 )
0009ea e472     +LDI R23 , BYTE4 ( 0x42C80000 )
                 	__GETD1N 0x42C80000
0009eb 9508      	RET
                 
                 ;OPTIMIZER ADDED SUBROUTINE, CALLED 2 TIMES, CODE SIZE REDUCTION:1 WORDS
                 SUBOPT_0x1B:
                +
0009ec eced     +LDI R30 , LOW ( 0x3DCCCCCD )
0009ed ecfc     +LDI R31 , HIGH ( 0x3DCCCCCD )
0009ee ec6c     +LDI R22 , BYTE3 ( 0x3DCCCCCD )
0009ef e37d     +LDI R23 , BYTE4 ( 0x3DCCCCCD )
                 	__GETD1N 0x3DCCCCCD
0009f0 9508      	RET
                 
                 ;OPTIMIZER ADDED SUBROUTINE, CALLED 2 TIMES, CODE SIZE REDUCTION:2 WORDS
                 SUBOPT_0x1C:
0009f1 d44b      	RCALL __PUTDP1
                +
0009f2 81ec     +LDD R30 , Y + 4
0009f3 81fd     +LDD R31 , Y + 4 + 1
0009f4 816e     +LDD R22 , Y + 4 + 2
0009f5 817f     +LDD R23 , Y + 4 + 3
                 	__GETD1S 4
0009f6 9508      	RET
                 
                 ;OPTIMIZER ADDED SUBROUTINE, CALLED 22 TIMES, CODE SIZE REDUCTION:19 WORDS
                 SUBOPT_0x1D:
0009f7 93fa      	ST   -Y,R31
0009f8 93ea      	ST   -Y,R30
0009f9 9508      	RET
                 
                 ;OPTIMIZER ADDED SUBROUTINE, CALLED 4 TIMES, CODE SIZE REDUCTION:4 WORDS
                 SUBOPT_0x1E:
0009fa 2766      	CLR  R22
0009fb 2777      	CLR  R23
0009fc d205      	RCALL __CDF1
0009fd 9508      	RET
                 
                 ;OPTIMIZER ADDED SUBROUTINE, CALLED 5 TIMES, CODE SIZE REDUCTION:10 WORDS
                 SUBOPT_0x1F:
                +
0009fe 85e8     +LDD R30 , Y + 8
0009ff 85f9     +LDD R31 , Y + 8 + 1
000a00 856a     +LDD R22 , Y + 8 + 2
000a01 857b     +LDD R23 , Y + 8 + 3
                 	__GETD1S 8
000a02 9508      	RET
                 
                 ;OPTIMIZER ADDED SUBROUTINE, CALLED 5 TIMES, CODE SIZE REDUCTION:6 WORDS
                 SUBOPT_0x20:
000a03 d142      	RCALL _i2c_start
000a04 eeae      	LDI  R26,LOW(238)
000a05 c174      	RJMP _i2c_write
                 
                 ;OPTIMIZER ADDED SUBROUTINE, CALLED 3 TIMES, CODE SIZE REDUCTION:8 WORDS
                 SUBOPT_0x21:
000a06 d173      	RCALL _i2c_write
000a07 d13e      	RCALL _i2c_start
000a08 eeaf      	LDI  R26,LOW(239)
000a09 d170      	RCALL _i2c_write
000a0a e0a1      	LDI  R26,LOW(1)
000a0b c153      	RJMP _i2c_read
                 
                 ;OPTIMIZER ADDED SUBROUTINE, CALLED 28 TIMES, CODE SIZE REDUCTION:52 WORDS
                 SUBOPT_0x22:
000a0c e0f0      	LDI  R31,0
000a0d 9508      	RET
                 
                 ;OPTIMIZER ADDED SUBROUTINE, CALLED 20 TIMES, CODE SIZE REDUCTION:36 WORDS
                 SUBOPT_0x23:
000a0e e0a1      	LDI  R26,LOW(1)
000a0f d14f      	RCALL _i2c_read
000a10 cffb      	RJMP SUBOPT_0x22
                 
                 ;OPTIMIZER ADDED SUBROUTINE, CALLED 2 TIMES, CODE SIZE REDUCTION:5 WORDS
                 SUBOPT_0x24:
000a11 d168      	RCALL _i2c_write
000a12 d142      	RCALL _i2c_stop
000a13 e0a5      	LDI  R26,LOW(5)
000a14 e0b0      	LDI  R27,0
000a15 d17c      	RCALL _delay_ms
000a16 cfec      	RJMP SUBOPT_0x20
                 
                 ;OPTIMIZER ADDED SUBROUTINE, CALLED 2 TIMES, CODE SIZE REDUCTION:15 WORDS
                 SUBOPT_0x25:
000a17 2f1e      	MOV  R17,R30
000a18 e0a0      	LDI  R26,LOW(0)
000a19 d145      	RCALL _i2c_read
000a1a 2f0e      	MOV  R16,R30
000a1b d139      	RCALL _i2c_stop
000a1c 2fe1      	MOV  R30,R17
000a1d dfee      	RCALL SUBOPT_0x22
000a1e d37e      	RCALL __CWD1
000a1f dfa9      	RCALL SUBOPT_0x13
000a20 e0e8      	LDI  R30,LOW(8)
000a21 d346      	RCALL __LSLD12
000a22 dfa6      	RCALL SUBOPT_0x13
000a23 2fe0      	MOV  R30,R16
000a24 dfe7      	RCALL SUBOPT_0x22
000a25 d377      	RCALL __CWD1
000a26 d330      	RCALL __ORD12
000a27 9508      	RET
                 
                 ;OPTIMIZER ADDED SUBROUTINE, CALLED 9 TIMES, CODE SIZE REDUCTION:6 WORDS
                 SUBOPT_0x26:
000a28 2766      	CLR  R22
000a29 2777      	CLR  R23
000a2a 9508      	RET
                 
                 ;OPTIMIZER ADDED SUBROUTINE, CALLED 5 TIMES, CODE SIZE REDUCTION:2 WORDS
                 SUBOPT_0x27:
000a2b d39b      	RCALL __MULD12
000a2c cf9c      	RJMP SUBOPT_0x13
                 
                 ;OPTIMIZER ADDED SUBROUTINE, CALLED 3 TIMES, CODE SIZE REDUCTION:14 WORDS
                 SUBOPT_0x28:
000a2d d346      	RCALL __ASRD12
000a2e 93e0 0170 	STS  _x1,R30
000a30 93f0 0171 	STS  _x1+1,R31
000a32 9360 0172 	STS  _x1+2,R22
000a34 9370 0173 	STS  _x1+3,R23
000a36 9508      	RET
                 
                 ;OPTIMIZER ADDED SUBROUTINE, CALLED 6 TIMES, CODE SIZE REDUCTION:3 WORDS
                 SUBOPT_0x29:
000a37 d36a      	RCALL __CWD2
000a38 9508      	RET
                 
                 ;OPTIMIZER ADDED SUBROUTINE, CALLED 5 TIMES, CODE SIZE REDUCTION:26 WORDS
                 SUBOPT_0x2A:
000a39 91a0 0170 	LDS  R26,_x1
000a3b 91b0 0171 	LDS  R27,_x1+1
000a3d 9180 0172 	LDS  R24,_x1+2
000a3f 9190 0173 	LDS  R25,_x1+3
000a41 9508      	RET
                 
                 ;OPTIMIZER ADDED SUBROUTINE, CALLED 4 TIMES, CODE SIZE REDUCTION:1 WORDS
                 SUBOPT_0x2B:
000a42 d35a      	RCALL __CWD1
000a43 9508      	RET
                 
                 ;OPTIMIZER ADDED SUBROUTINE, CALLED 4 TIMES, CODE SIZE REDUCTION:49 WORDS
                 SUBOPT_0x2C:
000a44 93e0 0174 	STS  _x2,R30
000a46 93f0 0175 	STS  _x2+1,R31
000a48 9360 0176 	STS  _x2+2,R22
000a4a 9370 0177 	STS  _x2+3,R23
000a4c dfec      	RCALL SUBOPT_0x2A
000a4d d2f5      	RCALL __ADDD12
000a4e 9508      	RET
                 
                 ;OPTIMIZER ADDED SUBROUTINE, CALLED 4 TIMES, CODE SIZE REDUCTION:19 WORDS
                 SUBOPT_0x2D:
000a4f 91e0 0184 	LDS  R30,_b6
000a51 91f0 0185 	LDS  R31,_b6+1
000a53 9160 0186 	LDS  R22,_b6+2
000a55 9170 0187 	LDS  R23,_b6+3
000a57 9508      	RET
                 
                 ;OPTIMIZER ADDED SUBROUTINE, CALLED 2 TIMES, CODE SIZE REDUCTION:5 WORDS
                 SUBOPT_0x2E:
000a58 91a0 0184 	LDS  R26,_b6
000a5a 91b0 0185 	LDS  R27,_b6+1
000a5c 9180 0186 	LDS  R24,_b6+2
000a5e 9190 0187 	LDS  R25,_b6+3
000a60 9508      	RET
                 
                 ;OPTIMIZER ADDED SUBROUTINE, CALLED 2 TIMES, CODE SIZE REDUCTION:5 WORDS
                 SUBOPT_0x2F:
000a61 93e0 0180 	STS  _x3,R30
000a63 93f0 0181 	STS  _x3+1,R31
000a65 9360 0182 	STS  _x3+2,R22
000a67 9370 0183 	STS  _x3+3,R23
000a69 9508      	RET
                 
                 ;OPTIMIZER ADDED SUBROUTINE, CALLED 2 TIMES, CODE SIZE REDUCTION:3 WORDS
                 SUBOPT_0x30:
                +
000a6a 5fee     +SUBI R30 , LOW ( - 2 )
000a6b 4fff     +SBCI R31 , HIGH ( - 2 )
000a6c 4f6f     +SBCI R22 , BYTE3 ( - 2 )
000a6d 4f7f     +SBCI R23 , BYTE4 ( - 2 )
                 	__ADDD1N 2
000a6e d31d      	RCALL __ASRD1
000a6f d31c      	RCALL __ASRD1
000a70 9508      	RET
                 
                 ;OPTIMIZER ADDED SUBROUTINE, CALLED 2 TIMES, CODE SIZE REDUCTION:5 WORDS
                 SUBOPT_0x31:
000a71 91a0 0188 	LDS  R26,_b7
000a73 91b0 0189 	LDS  R27,_b7+1
000a75 9180 018a 	LDS  R24,_b7+2
000a77 9190 018b 	LDS  R25,_b7+3
000a79 9508      	RET
                 
                 ;OPTIMIZER ADDED SUBROUTINE, CALLED 2 TIMES, CODE SIZE REDUCTION:5 WORDS
                 SUBOPT_0x32:
000a7a 91e0 018c 	LDS  R30,_b4
000a7c 91f0 018d 	LDS  R31,_b4+1
000a7e 9160 018e 	LDS  R22,_b4+2
000a80 9170 018f 	LDS  R23,_b4+3
000a82 9508      	RET
                 
                 ;OPTIMIZER ADDED SUBROUTINE, CALLED 2 TIMES, CODE SIZE REDUCTION:3 WORDS
                 SUBOPT_0x33:
                +
000a83 81aa     +LDD R26 , Y + 2
000a84 81bb     +LDD R27 , Y + 2 + 1
000a85 818c     +LDD R24 , Y + 2 + 2
000a86 819d     +LDD R25 , Y + 2 + 3
                 	__GETD2S 2
000a87 e0e8      	LDI  R30,LOW(8)
000a88 d2eb      	RCALL __ASRD12
000a89 9508      	RET
                 
                 ;OPTIMIZER ADDED SUBROUTINE, CALLED 2 TIMES, CODE SIZE REDUCTION:5 WORDS
                 SUBOPT_0x34:
000a8a 93e0 0170 	STS  _x1,R30
000a8c 93f0 0171 	STS  _x1+1,R31
000a8e 9360 0172 	STS  _x1+2,R22
000a90 9370 0173 	STS  _x1+3,R23
000a92 9508      	RET
                 
                 ;OPTIMIZER ADDED SUBROUTINE, CALLED 2 TIMES, CODE SIZE REDUCTION:10 WORDS
                 SUBOPT_0x35:
000a93 920a      	ST   -Y,R0
000a94 921a      	ST   -Y,R1
000a95 92fa      	ST   -Y,R15
000a96 936a      	ST   -Y,R22
000a97 937a      	ST   -Y,R23
000a98 938a      	ST   -Y,R24
000a99 939a      	ST   -Y,R25
000a9a 93aa      	ST   -Y,R26
000a9b 93ba      	ST   -Y,R27
000a9c 93ea      	ST   -Y,R30
000a9d 93fa      	ST   -Y,R31
000a9e b7ef      	IN   R30,SREG
000a9f 93ea      	ST   -Y,R30
000aa0 9508      	RET
                 
                 ;OPTIMIZER ADDED SUBROUTINE, CALLED 6 TIMES, CODE SIZE REDUCTION:3 WORDS
                 SUBOPT_0x36:
000aa1 93e0 01c8 	STS  _slot,R30
000aa3 9508      	RET
                 
                 ;OPTIMIZER ADDED SUBROUTINE, CALLED 4 TIMES, CODE SIZE REDUCTION:1 WORDS
                 SUBOPT_0x37:
000aa4 dffc      	RCALL SUBOPT_0x36
000aa5 9468      	SET
000aa6 9508      	RET
                 
                 ;OPTIMIZER ADDED SUBROUTINE, CALLED 2 TIMES, CODE SIZE REDUCTION:3 WORDS
                 SUBOPT_0x38:
                +
000aa7 e3ec     +LDI R30 , LOW ( 2 * _0x0 + ( 0 ) )
000aa8 e0f0     +LDI R31 , HIGH ( 2 * _0x0 + ( 0 ) )
                 	__POINTW1FN _0x0,0
000aa9 df4d      	RCALL SUBOPT_0x1D
000aaa e080      	LDI  R24,0
000aab de6a      	RCALL _printf
000aac 9622      	ADIW R28,2
000aad 9508      	RET
                 
                 ;OPTIMIZER ADDED SUBROUTINE, CALLED 3 TIMES, CODE SIZE REDUCTION:2 WORDS
                 SUBOPT_0x39:
000aae e0e0      	LDI  R30,LOW(0)
000aaf bfeb      	OUT  0x3B,R30
000ab0 9508      	RET
                 
                 ;OPTIMIZER ADDED SUBROUTINE, CALLED 17 TIMES, CODE SIZE REDUCTION:14 WORDS
                 SUBOPT_0x3A:
000ab1 93e0 01c9 	STS  _state,R30
000ab3 9508      	RET
                 
                 ;OPTIMIZER ADDED SUBROUTINE, CALLED 2 TIMES, CODE SIZE REDUCTION:2 WORDS
                 SUBOPT_0x3B:
000ab4 91ed      	LD   R30,X+
000ab5 91fd      	LD   R31,X+
000ab6 9631      	ADIW R30,1
000ab7 93fe      	ST   -X,R31
000ab8 93ee      	ST   -X,R30
000ab9 9508      	RET
                 
                 ;OPTIMIZER ADDED SUBROUTINE, CALLED 2 TIMES, CODE SIZE REDUCTION:2 WORDS
                 SUBOPT_0x3C:
000aba e0e0      	LDI  R30,LOW(0)
000abb 93e0 01ce 	STS  _encoder,R30
000abd 93e0 01cf 	STS  _encoder+1,R30
000abf 9508      	RET
                 
                 ;OPTIMIZER ADDED SUBROUTINE, CALLED 5 TIMES, CODE SIZE REDUCTION:2 WORDS
                 SUBOPT_0x3D:
000ac0 93e0 01cb 	STS  _timer_rto,R30
000ac2 9508      	RET
                 
                 ;OPTIMIZER ADDED SUBROUTINE, CALLED 3 TIMES, CODE SIZE REDUCTION:4 WORDS
                 SUBOPT_0x3E:
000ac3 e0b0      	LDI  R27,0
000ac4 c0cd      	RJMP _delay_ms
                 
                 ;OPTIMIZER ADDED SUBROUTINE, CALLED 7 TIMES, CODE SIZE REDUCTION:4 WORDS
                 SUBOPT_0x3F:
000ac5 e0e0      	LDI  R30,LOW(0)
000ac6 cfea      	RJMP SUBOPT_0x3A
                 
                 ;OPTIMIZER ADDED SUBROUTINE, CALLED 5 TIMES, CODE SIZE REDUCTION:10 WORDS
                 SUBOPT_0x40:
000ac7 e0e0      	LDI  R30,LOW(0)
000ac8 e0f0      	LDI  R31,HIGH(0)
000ac9 bdfd      	OUT  0x2C+1,R31
000aca bdec      	OUT  0x2C,R30
000acb 9508      	RET
                 
                 ;OPTIMIZER ADDED SUBROUTINE, CALLED 5 TIMES, CODE SIZE REDUCTION:10 WORDS
                 SUBOPT_0x41:
000acc 27ff      	CLR  R31
000acd 2766      	CLR  R22
000ace 2777      	CLR  R23
000acf d37c      	RCALL __PUTPARD1
000ad0 9508      	RET
                 
                 ;OPTIMIZER ADDED SUBROUTINE, CALLED 6 TIMES, CODE SIZE REDUCTION:3 WORDS
                 SUBOPT_0x42:
000ad1 df56      	RCALL SUBOPT_0x26
000ad2 d379      	RCALL __PUTPARD1
000ad3 9508      	RET
                 
                 ;OPTIMIZER ADDED SUBROUTINE, CALLED 3 TIMES, CODE SIZE REDUCTION:20 WORDS
                 SUBOPT_0x43:
000ad4 e0e0      	LDI  R30,LOW(0)
000ad5 93e0 01ef 	STS  _delay,R30
000ad7 93e0 01f0 	STS  _delay+1,R30
000ad9 e0e1      	LDI  R30,LOW(1)
000ada bdee      	OUT  0x2E,R30
000adb e0e4      	LDI  R30,LOW(4)
000adc bfe9      	OUT  0x39,R30
000add e0e0      	LDI  R30,LOW(0)
000ade dfe1      	RCALL SUBOPT_0x3D
000adf cfe7      	RJMP SUBOPT_0x40
                 
                 ;OPTIMIZER ADDED SUBROUTINE, CALLED 5 TIMES, CODE SIZE REDUCTION:2 WORDS
                 SUBOPT_0x44:
000ae0 94e8      	CLT
000ae1 f830      	BLD  R3,0
000ae2 9508      	RET
                 
                 ;OPTIMIZER ADDED SUBROUTINE, CALLED 3 TIMES, CODE SIZE REDUCTION:8 WORDS
                 SUBOPT_0x45:
                +
000ae3 e6e5     +LDI R30 , LOW ( 2 * _0x0 + ( 41 ) )
000ae4 e0f0     +LDI R31 , HIGH ( 2 * _0x0 + ( 41 ) )
                 	__POINTW1FN _0x0,41
000ae5 df11      	RCALL SUBOPT_0x1D
000ae6 e080      	LDI  R24,0
000ae7 de2e      	RCALL _printf
000ae8 9622      	ADIW R28,2
000ae9 9508      	RET
                 
                 ;OPTIMIZER ADDED SUBROUTINE, CALLED 3 TIMES, CODE SIZE REDUCTION:2 WORDS
                 SUBOPT_0x46:
000aea 91a0 01cb 	LDS  R26,_timer_rto
000aec 37aa      	CPI  R26,LOW(0x7A)
000aed 9508      	RET
                 
                 ;OPTIMIZER ADDED SUBROUTINE, CALLED 2 TIMES, CODE SIZE REDUCTION:13 WORDS
                 SUBOPT_0x47:
000aee b5ec      	IN   R30,0x2C
000aef b5fd      	IN   R31,0x2C+1
000af0 df09      	RCALL SUBOPT_0x1E
                +
000af1 e6af     +LDI R26 , LOW ( 0x3983126F )
000af2 e1b2     +LDI R27 , HIGH ( 0x3983126F )
000af3 e883     +LDI R24 , BYTE3 ( 0x3983126F )
000af4 e399     +LDI R25 , BYTE4 ( 0x3983126F )
                 	__GETD2N 0x3983126F
000af5 d196      	RCALL __MULF12
000af6 93e0 01f1 	STS  _delay_timer,R30
000af8 93f0 01f2 	STS  _delay_timer+1,R31
000afa 9360 01f3 	STS  _delay_timer+2,R22
000afc 9370 01f4 	STS  _delay_timer+3,R23
000afe 9508      	RET
                 
                 ;OPTIMIZER ADDED SUBROUTINE, CALLED 2 TIMES, CODE SIZE REDUCTION:1 WORDS
                 SUBOPT_0x48:
000aff 93e0 01fb 	STS  _delay_timer_kirim,R30
000b01 93f0 01fc 	STS  _delay_timer_kirim+1,R31
000b03 9508      	RET
                 
                 ;OPTIMIZER ADDED SUBROUTINE, CALLED 3 TIMES, CODE SIZE REDUCTION:6 WORDS
                 SUBOPT_0x49:
000b04 e084      	LDI  R24,4
000b05 de10      	RCALL _printf
000b06 9626      	ADIW R28,6
000b07 e0eb      	LDI  R30,LOW(11)
000b08 bdee      	OUT  0x2E,R30
000b09 9508      	RET
                 
                 ;OPTIMIZER ADDED SUBROUTINE, CALLED 3 TIMES, CODE SIZE REDUCTION:4 WORDS
                 SUBOPT_0x4A:
000b0a deec      	RCALL SUBOPT_0x1D
000b0b e080      	LDI  R24,0
000b0c de09      	RCALL _printf
000b0d 9622      	ADIW R28,2
000b0e 9508      	RET
                 
                 ;OPTIMIZER ADDED SUBROUTINE, CALLED 5 TIMES, CODE SIZE REDUCTION:18 WORDS
                 SUBOPT_0x4B:
000b0f 932a      	ST   -Y,R18
000b10 89ab      	LDD  R26,Y+19
000b11 89bc      	LDD  R27,Y+19+1
000b12 89ed      	LDD  R30,Y+21
000b13 89fe      	LDD  R31,Y+21+1
000b14 9509      	ICALL
000b15 9508      	RET
                 
                 ;OPTIMIZER ADDED SUBROUTINE, CALLED 7 TIMES, CODE SIZE REDUCTION:4 WORDS
                 SUBOPT_0x4C:
000b16 89ee      	LDD  R30,Y+22
000b17 89ff      	LDD  R31,Y+22+1
000b18 9508      	RET
                 
                 ;OPTIMIZER ADDED SUBROUTINE, CALLED 6 TIMES, CODE SIZE REDUCTION:8 WORDS
                 SUBOPT_0x4D:
000b19 9734      	SBIW R30,4
000b1a 8bee      	STD  Y+22,R30
000b1b 8bff      	STD  Y+22+1,R31
000b1c 9508      	RET
                 
                 ;OPTIMIZER ADDED SUBROUTINE, CALLED 5 TIMES, CODE SIZE REDUCTION:14 WORDS
                 SUBOPT_0x4E:
000b1d 89ab      	LDD  R26,Y+19
000b1e 89bc      	LDD  R27,Y+19+1
000b1f 89ed      	LDD  R30,Y+21
000b20 89fe      	LDD  R31,Y+21+1
000b21 9509      	ICALL
000b22 9508      	RET
                 
                 ;OPTIMIZER ADDED SUBROUTINE, CALLED 5 TIMES, CODE SIZE REDUCTION:2 WORDS
                 SUBOPT_0x4F:
000b23 dff2      	RCALL SUBOPT_0x4C
000b24 cff4      	RJMP SUBOPT_0x4D
                 
                 ;OPTIMIZER ADDED SUBROUTINE, CALLED 2 TIMES, CODE SIZE REDUCTION:5 WORDS
                 SUBOPT_0x50:
000b25 89ae      	LDD  R26,Y+22
000b26 89bf      	LDD  R27,Y+22+1
000b27 9614      	ADIW R26,4
000b28 d30a      	RCALL __GETW1P
000b29 83ee      	STD  Y+6,R30
000b2a 83ff      	STD  Y+6+1,R31
000b2b 81ae      	LDD  R26,Y+6
000b2c 81bf      	LDD  R27,Y+6+1
000b2d 9508      	RET
                 
                 ;OPTIMIZER ADDED SUBROUTINE, CALLED 3 TIMES, CODE SIZE REDUCTION:2 WORDS
                 SUBOPT_0x51:
000b2e 89ae      	LDD  R26,Y+22
000b2f 89bf      	LDD  R27,Y+22+1
000b30 9614      	ADIW R26,4
000b31 9508      	RET
                 
                 ;OPTIMIZER ADDED SUBROUTINE, CALLED 2 TIMES, CODE SIZE REDUCTION:1 WORDS
                 SUBOPT_0x52:
                +
000b32 87ec     +STD Y + 12 , R30
000b33 87fd     +STD Y + 12 + 1 , R31
000b34 876e     +STD Y + 12 + 2 , R22
000b35 877f     +STD Y + 12 + 3 , R23
                 	__PUTD1S 12
000b36 9508      	RET
                 
                 ;OPTIMIZER ADDED SUBROUTINE, CALLED 2 TIMES, CODE SIZE REDUCTION:1 WORDS
                 SUBOPT_0x53:
000b37 7f0b      	ANDI R16,LOW(251)
000b38 89e9      	LDD  R30,Y+17
000b39 93ea      	ST   -Y,R30
000b3a cfe2      	RJMP SUBOPT_0x4E
                 
                 ;OPTIMIZER ADDED SUBROUTINE, CALLED 2 TIMES, CODE SIZE REDUCTION:2 WORDS
                 SUBOPT_0x54:
000b3b dec2      	RCALL SUBOPT_0x1F
                +
000b3c 85ac     +LDD R26 , Y + 12
000b3d 85bd     +LDD R27 , Y + 12 + 1
000b3e 858e     +LDD R24 , Y + 12 + 2
000b3f 859f     +LDD R25 , Y + 12 + 3
                 	__GETD2S 12
000b40 9508      	RET
                 
                 
                 	.CSEG
                 	.equ __i2c_dir=__i2c_port-1
                 	.equ __i2c_pin=__i2c_port-2
                 
                 _i2c_init:
000b41 98ad      	cbi  __i2c_port,__scl_bit
000b42 98ac      	cbi  __i2c_port,__sda_bit
000b43 9aa5      	sbi  __i2c_dir,__scl_bit
000b44 98a4      	cbi  __i2c_dir,__sda_bit
000b45 c015      	rjmp __i2c_delay2
                 _i2c_start:
000b46 98a4      	cbi  __i2c_dir,__sda_bit
000b47 98a5      	cbi  __i2c_dir,__scl_bit
000b48 27ee      	clr  r30
000b49 0000      	nop
000b4a 9b9c      	sbis __i2c_pin,__sda_bit
000b4b 9508      	ret
000b4c 9b9d      	sbis __i2c_pin,__scl_bit
000b4d 9508      	ret
000b4e d004      	rcall __i2c_delay1
000b4f 9aa4      	sbi  __i2c_dir,__sda_bit
000b50 d002      	rcall __i2c_delay1
000b51 9aa5      	sbi  __i2c_dir,__scl_bit
000b52 e0e1      	ldi  r30,1
                 __i2c_delay1:
000b53 e063      	ldi  r22,3
000b54 c007      	rjmp __i2c_delay2l
                 _i2c_stop:
000b55 9aa4      	sbi  __i2c_dir,__sda_bit
000b56 9aa5      	sbi  __i2c_dir,__scl_bit
000b57 d003      	rcall __i2c_delay2
000b58 98a5      	cbi  __i2c_dir,__scl_bit
000b59 dff9      	rcall __i2c_delay1
000b5a 98a4      	cbi  __i2c_dir,__sda_bit
                 __i2c_delay2:
000b5b e066      	ldi  r22,6
                 __i2c_delay2l:
000b5c 956a      	dec  r22
000b5d f7f1      	brne __i2c_delay2l
000b5e 9508      	ret
                 _i2c_read:
000b5f e078      	ldi  r23,8
                 __i2c_read0:
000b60 98a5      	cbi  __i2c_dir,__scl_bit
000b61 dff1      	rcall __i2c_delay1
                 __i2c_read3:
000b62 9b9d      	sbis __i2c_pin,__scl_bit
000b63 cffe      	rjmp __i2c_read3
000b64 dfee      	rcall __i2c_delay1
000b65 9488      	clc
000b66 999c      	sbic __i2c_pin,__sda_bit
000b67 9408      	sec
000b68 9aa5      	sbi  __i2c_dir,__scl_bit
000b69 dff1      	rcall __i2c_delay2
000b6a 1fee      	rol  r30
000b6b 957a      	dec  r23
000b6c f799      	brne __i2c_read0
000b6d 2f7a      	mov  r23,r26
000b6e 2377      	tst  r23
000b6f f411      	brne __i2c_read1
000b70 98a4      	cbi  __i2c_dir,__sda_bit
000b71 c001      	rjmp __i2c_read2
                 __i2c_read1:
000b72 9aa4      	sbi  __i2c_dir,__sda_bit
                 __i2c_read2:
000b73 dfdf      	rcall __i2c_delay1
000b74 98a5      	cbi  __i2c_dir,__scl_bit
000b75 dfe5      	rcall __i2c_delay2
000b76 9aa5      	sbi  __i2c_dir,__scl_bit
000b77 dfdb      	rcall __i2c_delay1
000b78 98a4      	cbi  __i2c_dir,__sda_bit
000b79 cfd9      	rjmp __i2c_delay1
                 
                 _i2c_write:
000b7a e078      	ldi  r23,8
                 __i2c_write0:
000b7b 0faa      	lsl  r26
000b7c f410      	brcc __i2c_write1
000b7d 98a4      	cbi  __i2c_dir,__sda_bit
000b7e c001      	rjmp __i2c_write2
                 __i2c_write1:
000b7f 9aa4      	sbi  __i2c_dir,__sda_bit
                 __i2c_write2:
000b80 dfda      	rcall __i2c_delay2
000b81 98a5      	cbi  __i2c_dir,__scl_bit
000b82 dfd0      	rcall __i2c_delay1
                 __i2c_write3:
000b83 9b9d      	sbis __i2c_pin,__scl_bit
000b84 cffe      	rjmp __i2c_write3
000b85 dfcd      	rcall __i2c_delay1
000b86 9aa5      	sbi  __i2c_dir,__scl_bit
000b87 957a      	dec  r23
000b88 f791      	brne __i2c_write0
000b89 98a4      	cbi  __i2c_dir,__sda_bit
000b8a dfc8      	rcall __i2c_delay1
000b8b 98a5      	cbi  __i2c_dir,__scl_bit
000b8c dfce      	rcall __i2c_delay2
000b8d e0e1      	ldi  r30,1
000b8e 999c      	sbic __i2c_pin,__sda_bit
000b8f 27ee      	clr  r30
000b90 9aa5      	sbi  __i2c_dir,__scl_bit
000b91 cfc1      	rjmp __i2c_delay1
                 
                 _delay_ms:
000b92 9610      	adiw r26,0
000b93 f039      	breq __delay_ms1
                 __delay_ms0:
                +
000b94 ec8d     +LDI R24 , LOW ( 0x1CD )
000b95 e091     +LDI R25 , HIGH ( 0x1CD )
                +__DELAY_USW_LOOP :
000b96 9701     +SBIW R24 , 1
000b97 f7f1     +BRNE __DELAY_USW_LOOP
                 	__DELAY_USW 0x1CD
000b98 95a8      	wdr
000b99 9711      	sbiw r26,1
000b9a f7c9      	brne __delay_ms0
                 __delay_ms1:
000b9b 9508      	ret
                 
                 __ROUND_REPACK:
000b9c 2355      	TST  R21
000b9d f442      	BRPL __REPACK
000b9e 3850      	CPI  R21,0x80
000b9f f411      	BRNE __ROUND_REPACK0
000ba0 ffe0      	SBRS R30,0
000ba1 c004      	RJMP __REPACK
                 __ROUND_REPACK0:
000ba2 9631      	ADIW R30,1
000ba3 1f69      	ADC  R22,R25
000ba4 1f79      	ADC  R23,R25
000ba5 f06b      	BRVS __REPACK1
                 
                 __REPACK:
000ba6 e850      	LDI  R21,0x80
000ba7 2757      	EOR  R21,R23
000ba8 f411      	BRNE __REPACK0
000ba9 935f      	PUSH R21
000baa c0cf      	RJMP __ZERORES
                 __REPACK0:
000bab 3f5f      	CPI  R21,0xFF
000bac f031      	BREQ __REPACK1
000bad 0f66      	LSL  R22
000bae 0c00      	LSL  R0
000baf 9557      	ROR  R21
000bb0 9567      	ROR  R22
000bb1 2f75      	MOV  R23,R21
000bb2 9508      	RET
                 __REPACK1:
000bb3 935f      	PUSH R21
000bb4 2000      	TST  R0
000bb5 f00a      	BRMI __REPACK2
000bb6 c0cf      	RJMP __MAXRES
                 __REPACK2:
000bb7 c0c8      	RJMP __MINRES
                 
                 __UNPACK:
000bb8 e850      	LDI  R21,0x80
000bb9 2e19      	MOV  R1,R25
000bba 2215      	AND  R1,R21
000bbb 0f88      	LSL  R24
000bbc 1f99      	ROL  R25
000bbd 2795      	EOR  R25,R21
000bbe 0f55      	LSL  R21
000bbf 9587      	ROR  R24
                 
                 __UNPACK1:
000bc0 e850      	LDI  R21,0x80
000bc1 2e07      	MOV  R0,R23
000bc2 2205      	AND  R0,R21
000bc3 0f66      	LSL  R22
000bc4 1f77      	ROL  R23
000bc5 2775      	EOR  R23,R21
000bc6 0f55      	LSL  R21
000bc7 9567      	ROR  R22
000bc8 9508      	RET
                 
                 __CFD1U:
000bc9 9468      	SET
000bca c001      	RJMP __CFD1U0
                 __CFD1:
000bcb 94e8      	CLT
                 __CFD1U0:
000bcc 935f      	PUSH R21
000bcd dff2      	RCALL __UNPACK1
000bce 3870      	CPI  R23,0x80
000bcf f018      	BRLO __CFD10
000bd0 3f7f      	CPI  R23,0xFF
000bd1 f408      	BRCC __CFD10
000bd2 c0a7      	RJMP __ZERORES
                 __CFD10:
000bd3 e156      	LDI  R21,22
000bd4 1b57      	SUB  R21,R23
000bd5 f4aa      	BRPL __CFD11
000bd6 9551      	NEG  R21
000bd7 3058      	CPI  R21,8
000bd8 f40e      	BRTC __CFD19
000bd9 3059      	CPI  R21,9
                 __CFD19:
000bda f030      	BRLO __CFD17
000bdb efef      	SER  R30
000bdc efff      	SER  R31
000bdd ef6f      	SER  R22
000bde e77f      	LDI  R23,0x7F
000bdf f977      	BLD  R23,7
000be0 c01a      	RJMP __CFD15
                 __CFD17:
000be1 2777      	CLR  R23
000be2 2355      	TST  R21
000be3 f0b9      	BREQ __CFD15
                 __CFD18:
000be4 0fee      	LSL  R30
000be5 1fff      	ROL  R31
000be6 1f66      	ROL  R22
000be7 1f77      	ROL  R23
000be8 955a      	DEC  R21
000be9 f7d1      	BRNE __CFD18
000bea c010      	RJMP __CFD15
                 __CFD11:
000beb 2777      	CLR  R23
                 __CFD12:
000bec 3058      	CPI  R21,8
000bed f028      	BRLO __CFD13
000bee 2fef      	MOV  R30,R31
000bef 2ff6      	MOV  R31,R22
000bf0 2f67      	MOV  R22,R23
000bf1 5058      	SUBI R21,8
000bf2 cff9      	RJMP __CFD12
                 __CFD13:
000bf3 2355      	TST  R21
000bf4 f031      	BREQ __CFD15
                 __CFD14:
000bf5 9576      	LSR  R23
000bf6 9567      	ROR  R22
000bf7 95f7      	ROR  R31
000bf8 95e7      	ROR  R30
000bf9 955a      	DEC  R21
000bfa f7d1      	BRNE __CFD14
                 __CFD15:
000bfb 2000      	TST  R0
000bfc f40a      	BRPL __CFD16
000bfd d162      	RCALL __ANEGD1
                 __CFD16:
000bfe 915f      	POP  R21
000bff 9508      	RET
                 
                 __CDF1U:
000c00 9468      	SET
000c01 c001      	RJMP __CDF1U0
                 __CDF1:
000c02 94e8      	CLT
                 __CDF1U0:
000c03 9730      	SBIW R30,0
000c04 4060      	SBCI R22,0
000c05 4070      	SBCI R23,0
000c06 f0b1      	BREQ __CDF10
000c07 2400      	CLR  R0
000c08 f026      	BRTS __CDF11
000c09 2377      	TST  R23
000c0a f412      	BRPL __CDF11
000c0b 9400      	COM  R0
000c0c d153      	RCALL __ANEGD1
                 __CDF11:
000c0d 2e17      	MOV  R1,R23
000c0e e17e      	LDI  R23,30
000c0f 2011      	TST  R1
                 __CDF12:
000c10 f032      	BRMI __CDF13
000c11 957a      	DEC  R23
000c12 0fee      	LSL  R30
000c13 1fff      	ROL  R31
000c14 1f66      	ROL  R22
000c15 1c11      	ROL  R1
000c16 cff9      	RJMP __CDF12
                 __CDF13:
000c17 2fef      	MOV  R30,R31
000c18 2ff6      	MOV  R31,R22
000c19 2d61      	MOV  R22,R1
000c1a 935f      	PUSH R21
000c1b df8a      	RCALL __REPACK
000c1c 915f      	POP  R21
                 __CDF10:
000c1d 9508      	RET
                 
                 __SWAPACC:
000c1e 934f      	PUSH R20
000c1f 01af      	MOVW R20,R30
000c20 01fd      	MOVW R30,R26
000c21 01da      	MOVW R26,R20
000c22 01ab      	MOVW R20,R22
000c23 01bc      	MOVW R22,R24
000c24 01ca      	MOVW R24,R20
000c25 2d40      	MOV  R20,R0
000c26 2c01      	MOV  R0,R1
000c27 2e14      	MOV  R1,R20
000c28 914f      	POP  R20
000c29 9508      	RET
                 
                 __UADD12:
000c2a 0fea      	ADD  R30,R26
000c2b 1ffb      	ADC  R31,R27
000c2c 1f68      	ADC  R22,R24
000c2d 9508      	RET
                 
                 __NEGMAN1:
000c2e 95e0      	COM  R30
000c2f 95f0      	COM  R31
000c30 9560      	COM  R22
000c31 5fef      	SUBI R30,-1
000c32 4fff      	SBCI R31,-1
000c33 4f6f      	SBCI R22,-1
000c34 9508      	RET
                 
                 __SUBF12:
000c35 935f      	PUSH R21
000c36 df81      	RCALL __UNPACK
000c37 3890      	CPI  R25,0x80
000c38 f171      	BREQ __ADDF129
000c39 e850      	LDI  R21,0x80
000c3a 2615      	EOR  R1,R21
                 
000c3b c004      	RJMP __ADDF120
                 
                 __ADDF12:
000c3c 935f      	PUSH R21
000c3d df7a      	RCALL __UNPACK
000c3e 3890      	CPI  R25,0x80
000c3f f139      	BREQ __ADDF129
                 
                 __ADDF120:
000c40 3870      	CPI  R23,0x80
000c41 f121      	BREQ __ADDF128
                 __ADDF121:
000c42 2f57      	MOV  R21,R23
000c43 1b59      	SUB  R21,R25
000c44 f12b      	BRVS __ADDF1211
000c45 f412      	BRPL __ADDF122
000c46 dfd7      	RCALL __SWAPACC
000c47 cffa      	RJMP __ADDF121
                 __ADDF122:
000c48 3158      	CPI  R21,24
000c49 f018      	BRLO __ADDF123
000c4a 27aa      	CLR  R26
000c4b 27bb      	CLR  R27
000c4c 2788      	CLR  R24
                 __ADDF123:
000c4d 3058      	CPI  R21,8
000c4e f028      	BRLO __ADDF124
000c4f 2fab      	MOV  R26,R27
000c50 2fb8      	MOV  R27,R24
000c51 2788      	CLR  R24
000c52 5058      	SUBI R21,8
000c53 cff9      	RJMP __ADDF123
                 __ADDF124:
000c54 2355      	TST  R21
000c55 f029      	BREQ __ADDF126
                 __ADDF125:
000c56 9586      	LSR  R24
000c57 95b7      	ROR  R27
000c58 95a7      	ROR  R26
000c59 955a      	DEC  R21
000c5a f7d9      	BRNE __ADDF125
                 __ADDF126:
000c5b 2d50      	MOV  R21,R0
000c5c 2551      	EOR  R21,R1
000c5d f072      	BRMI __ADDF127
000c5e dfcb      	RCALL __UADD12
000c5f f438      	BRCC __ADDF129
000c60 9567      	ROR  R22
000c61 95f7      	ROR  R31
000c62 95e7      	ROR  R30
000c63 9573      	INC  R23
000c64 f413      	BRVC __ADDF129
000c65 c020      	RJMP __MAXRES
                 __ADDF128:
000c66 dfb7      	RCALL __SWAPACC
                 __ADDF129:
000c67 df3e      	RCALL __REPACK
000c68 915f      	POP  R21
000c69 9508      	RET
                 __ADDF1211:
000c6a f7d8      	BRCC __ADDF128
000c6b cffb      	RJMP __ADDF129
                 __ADDF127:
000c6c 1bea      	SUB  R30,R26
000c6d 0bfb      	SBC  R31,R27
000c6e 0b68      	SBC  R22,R24
000c6f f051      	BREQ __ZERORES
000c70 f410      	BRCC __ADDF1210
000c71 9400      	COM  R0
000c72 dfbb      	RCALL __NEGMAN1
                 __ADDF1210:
000c73 2366      	TST  R22
000c74 f392      	BRMI __ADDF129
000c75 0fee      	LSL  R30
000c76 1fff      	ROL  R31
000c77 1f66      	ROL  R22
000c78 957a      	DEC  R23
000c79 f7cb      	BRVC __ADDF1210
                 
                 __ZERORES:
000c7a 27ee      	CLR  R30
000c7b 27ff      	CLR  R31
000c7c 2766      	CLR  R22
000c7d 2777      	CLR  R23
000c7e 915f      	POP  R21
000c7f 9508      	RET
                 
                 __MINRES:
000c80 efef      	SER  R30
000c81 efff      	SER  R31
000c82 e76f      	LDI  R22,0x7F
000c83 ef7f      	SER  R23
000c84 915f      	POP  R21
000c85 9508      	RET
                 
                 __MAXRES:
000c86 efef      	SER  R30
000c87 efff      	SER  R31
000c88 e76f      	LDI  R22,0x7F
000c89 e77f      	LDI  R23,0x7F
000c8a 915f      	POP  R21
000c8b 9508      	RET
                 
                 __MULF12:
000c8c 935f      	PUSH R21
000c8d df2a      	RCALL __UNPACK
000c8e 3870      	CPI  R23,0x80
000c8f f351      	BREQ __ZERORES
000c90 3890      	CPI  R25,0x80
000c91 f341      	BREQ __ZERORES
000c92 2401      	EOR  R0,R1
000c93 9408      	SEC
000c94 1f79      	ADC  R23,R25
000c95 f423      	BRVC __MULF124
000c96 f31c      	BRLT __ZERORES
                 __MULF125:
000c97 2000      	TST  R0
000c98 f33a      	BRMI __MINRES
000c99 cfec      	RJMP __MAXRES
                 __MULF124:
000c9a 920f      	PUSH R0
000c9b 931f      	PUSH R17
000c9c 932f      	PUSH R18
000c9d 933f      	PUSH R19
000c9e 934f      	PUSH R20
000c9f 2711      	CLR  R17
000ca0 2722      	CLR  R18
000ca1 2799      	CLR  R25
000ca2 9f68      	MUL  R22,R24
000ca3 01a0      	MOVW R20,R0
000ca4 9f8f      	MUL  R24,R31
000ca5 2d30      	MOV  R19,R0
000ca6 0d41      	ADD  R20,R1
000ca7 1f59      	ADC  R21,R25
000ca8 9f6b      	MUL  R22,R27
000ca9 0d30      	ADD  R19,R0
000caa 1d41      	ADC  R20,R1
000cab 1f59      	ADC  R21,R25
000cac 9f8e      	MUL  R24,R30
000cad d027      	RCALL __MULF126
000cae 9fbf      	MUL  R27,R31
000caf d025      	RCALL __MULF126
000cb0 9f6a      	MUL  R22,R26
000cb1 d023      	RCALL __MULF126
000cb2 9fbe      	MUL  R27,R30
000cb3 d01d      	RCALL __MULF127
000cb4 9faf      	MUL  R26,R31
000cb5 d01b      	RCALL __MULF127
000cb6 9fae      	MUL  R26,R30
000cb7 0d11      	ADD  R17,R1
000cb8 1f29      	ADC  R18,R25
000cb9 1f39      	ADC  R19,R25
000cba 1f49      	ADC  R20,R25
000cbb 1f59      	ADC  R21,R25
000cbc 2fe3      	MOV  R30,R19
000cbd 2ff4      	MOV  R31,R20
000cbe 2f65      	MOV  R22,R21
000cbf 2f52      	MOV  R21,R18
000cc0 914f      	POP  R20
000cc1 913f      	POP  R19
000cc2 912f      	POP  R18
000cc3 911f      	POP  R17
000cc4 900f      	POP  R0
000cc5 2366      	TST  R22
000cc6 f02a      	BRMI __MULF122
000cc7 0f55      	LSL  R21
000cc8 1fee      	ROL  R30
000cc9 1fff      	ROL  R31
000cca 1f66      	ROL  R22
000ccb c002      	RJMP __MULF123
                 __MULF122:
000ccc 9573      	INC  R23
000ccd f24b      	BRVS __MULF125
                 __MULF123:
000cce decd      	RCALL __ROUND_REPACK
000ccf 915f      	POP  R21
000cd0 9508      	RET
                 
                 __MULF127:
000cd1 0d10      	ADD  R17,R0
000cd2 1d21      	ADC  R18,R1
000cd3 1f39      	ADC  R19,R25
000cd4 c002      	RJMP __MULF128
                 __MULF126:
000cd5 0d20      	ADD  R18,R0
000cd6 1d31      	ADC  R19,R1
                 __MULF128:
000cd7 1f49      	ADC  R20,R25
000cd8 1f59      	ADC  R21,R25
000cd9 9508      	RET
                 
                 __DIVF21:
000cda 935f      	PUSH R21
000cdb dedc      	RCALL __UNPACK
000cdc 3870      	CPI  R23,0x80
000cdd f421      	BRNE __DIVF210
000cde 2011      	TST  R1
                 __DIVF211:
000cdf f40a      	BRPL __DIVF219
000ce0 cf9f      	RJMP __MINRES
                 __DIVF219:
000ce1 cfa4      	RJMP __MAXRES
                 __DIVF210:
000ce2 3890      	CPI  R25,0x80
000ce3 f409      	BRNE __DIVF218
                 __DIVF217:
000ce4 cf95      	RJMP __ZERORES
                 __DIVF218:
000ce5 2401      	EOR  R0,R1
000ce6 9408      	SEC
000ce7 0b97      	SBC  R25,R23
000ce8 f41b      	BRVC __DIVF216
000ce9 f3d4      	BRLT __DIVF217
000cea 2000      	TST  R0
000ceb cff3      	RJMP __DIVF211
                 __DIVF216:
000cec 2f79      	MOV  R23,R25
000ced 931f      	PUSH R17
000cee 932f      	PUSH R18
000cef 933f      	PUSH R19
000cf0 934f      	PUSH R20
000cf1 2411      	CLR  R1
000cf2 2711      	CLR  R17
000cf3 2722      	CLR  R18
000cf4 2733      	CLR  R19
000cf5 2744      	CLR  R20
000cf6 2755      	CLR  R21
000cf7 e290      	LDI  R25,32
                 __DIVF212:
000cf8 17ae      	CP   R26,R30
000cf9 07bf      	CPC  R27,R31
000cfa 0786      	CPC  R24,R22
000cfb 0741      	CPC  R20,R17
000cfc f030      	BRLO __DIVF213
000cfd 1bae      	SUB  R26,R30
000cfe 0bbf      	SBC  R27,R31
000cff 0b86      	SBC  R24,R22
000d00 0b41      	SBC  R20,R17
000d01 9408      	SEC
000d02 c001      	RJMP __DIVF214
                 __DIVF213:
000d03 9488      	CLC
                 __DIVF214:
000d04 1f55      	ROL  R21
000d05 1f22      	ROL  R18
000d06 1f33      	ROL  R19
000d07 1c11      	ROL  R1
000d08 1faa      	ROL  R26
000d09 1fbb      	ROL  R27
000d0a 1f88      	ROL  R24
000d0b 1f44      	ROL  R20
000d0c 959a      	DEC  R25
000d0d f751      	BRNE __DIVF212
000d0e 01f9      	MOVW R30,R18
000d0f 2d61      	MOV  R22,R1
000d10 914f      	POP  R20
000d11 913f      	POP  R19
000d12 912f      	POP  R18
000d13 911f      	POP  R17
000d14 2366      	TST  R22
000d15 f032      	BRMI __DIVF215
000d16 0f55      	LSL  R21
000d17 1fee      	ROL  R30
000d18 1fff      	ROL  R31
000d19 1f66      	ROL  R22
000d1a 957a      	DEC  R23
000d1b f243      	BRVS __DIVF217
                 __DIVF215:
000d1c de7f      	RCALL __ROUND_REPACK
000d1d 915f      	POP  R21
000d1e 9508      	RET
                 
                 __CMPF12:
000d1f 2399      	TST  R25
000d20 f09a      	BRMI __CMPF120
000d21 2377      	TST  R23
000d22 f042      	BRMI __CMPF121
000d23 1797      	CP   R25,R23
000d24 f048      	BRLO __CMPF122
000d25 f429      	BRNE __CMPF121
000d26 17ae      	CP   R26,R30
000d27 07bf      	CPC  R27,R31
000d28 0786      	CPC  R24,R22
000d29 f020      	BRLO __CMPF122
000d2a f031      	BREQ __CMPF123
                 __CMPF121:
000d2b 9498      	CLZ
000d2c 9488      	CLC
000d2d 9508      	RET
                 __CMPF122:
000d2e 9498      	CLZ
000d2f 9408      	SEC
000d30 9508      	RET
                 __CMPF123:
000d31 9418      	SEZ
000d32 9488      	CLC
000d33 9508      	RET
                 __CMPF120:
000d34 2377      	TST  R23
000d35 f7c2      	BRPL __CMPF122
000d36 1797      	CP   R25,R23
000d37 f398      	BRLO __CMPF121
000d38 f7a9      	BRNE __CMPF122
000d39 17ea      	CP   R30,R26
000d3a 07fb      	CPC  R31,R27
000d3b 0768      	CPC  R22,R24
000d3c f388      	BRLO __CMPF122
000d3d f399      	BREQ __CMPF123
000d3e cfec      	RJMP __CMPF121
                 
                 __ADDW2R15:
000d3f 2400      	CLR  R0
000d40 0daf      	ADD  R26,R15
000d41 1db0      	ADC  R27,R0
000d42 9508      	RET
                 
                 __ADDD12:
000d43 0fea      	ADD  R30,R26
000d44 1ffb      	ADC  R31,R27
000d45 1f68      	ADC  R22,R24
000d46 1f79      	ADC  R23,R25
000d47 9508      	RET
                 
                 __ADDD21:
000d48 0fae      	ADD  R26,R30
000d49 1fbf      	ADC  R27,R31
000d4a 1f86      	ADC  R24,R22
000d4b 1f97      	ADC  R25,R23
000d4c 9508      	RET
                 
                 __SUBD12:
000d4d 1bea      	SUB  R30,R26
000d4e 0bfb      	SBC  R31,R27
000d4f 0b68      	SBC  R22,R24
000d50 0b79      	SBC  R23,R25
000d51 9508      	RET
                 
                 __SUBD21:
000d52 1bae      	SUB  R26,R30
000d53 0bbf      	SBC  R27,R31
000d54 0b86      	SBC  R24,R22
000d55 0b97      	SBC  R25,R23
000d56 9508      	RET
                 
                 __ORD12:
000d57 2bea      	OR   R30,R26
000d58 2bfb      	OR   R31,R27
000d59 2b68      	OR   R22,R24
000d5a 2b79      	OR   R23,R25
000d5b 9508      	RET
                 
                 __ANEGW1:
000d5c 95f1      	NEG  R31
000d5d 95e1      	NEG  R30
000d5e 40f0      	SBCI R31,0
000d5f 9508      	RET
                 
                 __ANEGD1:
000d60 95f0      	COM  R31
000d61 9560      	COM  R22
000d62 9570      	COM  R23
000d63 95e1      	NEG  R30
000d64 4fff      	SBCI R31,-1
000d65 4f6f      	SBCI R22,-1
000d66 4f7f      	SBCI R23,-1
000d67 9508      	RET
                 
                 __LSLD12:
000d68 23ee      	TST  R30
000d69 2e0e      	MOV  R0,R30
000d6a 01fd      	MOVW R30,R26
000d6b 01bc      	MOVW R22,R24
000d6c f031      	BREQ __LSLD12R
                 __LSLD12L:
000d6d 0fee      	LSL  R30
000d6e 1fff      	ROL  R31
000d6f 1f66      	ROL  R22
000d70 1f77      	ROL  R23
000d71 940a      	DEC  R0
000d72 f7d1      	BRNE __LSLD12L
                 __LSLD12R:
000d73 9508      	RET
                 
                 __ASRD12:
000d74 23ee      	TST  R30
000d75 2e0e      	MOV  R0,R30
000d76 01fd      	MOVW R30,R26
000d77 01bc      	MOVW R22,R24
000d78 f031      	BREQ __ASRD12R
                 __ASRD12L:
000d79 9575      	ASR  R23
000d7a 9567      	ROR  R22
000d7b 95f7      	ROR  R31
000d7c 95e7      	ROR  R30
000d7d 940a      	DEC  R0
000d7e f7d1      	BRNE __ASRD12L
                 __ASRD12R:
000d7f 9508      	RET
                 
                 __LSRD12:
000d80 23ee      	TST  R30
000d81 2e0e      	MOV  R0,R30
000d82 01fd      	MOVW R30,R26
000d83 01bc      	MOVW R22,R24
000d84 f031      	BREQ __LSRD12R
                 __LSRD12L:
000d85 9576      	LSR  R23
000d86 9567      	ROR  R22
000d87 95f7      	ROR  R31
000d88 95e7      	ROR  R30
000d89 940a      	DEC  R0
000d8a f7d1      	BRNE __LSRD12L
                 __LSRD12R:
000d8b 9508      	RET
                 
                 __ASRD1:
000d8c 9575      	ASR  R23
000d8d 9567      	ROR  R22
000d8e 95f7      	ROR  R31
000d8f 95e7      	ROR  R30
000d90 9508      	RET
                 
                 __LSLD1:
000d91 0fee      	LSL  R30
000d92 1fff      	ROL  R31
000d93 1f66      	ROL  R22
000d94 1f77      	ROL  R23
000d95 9508      	RET
                 
                 __ASRD16:
000d96 2fe6      	MOV  R30,R22
000d97 2ff7      	MOV  R31,R23
000d98 2766      	CLR  R22
000d99 fdf7      	SBRC R31,7
000d9a ef6f      	SER  R22
000d9b 2f76      	MOV  R23,R22
000d9c 9508      	RET
                 
                 __CWD1:
000d9d 2f6f      	MOV  R22,R31
000d9e 0f66      	ADD  R22,R22
000d9f 0b66      	SBC  R22,R22
000da0 2f76      	MOV  R23,R22
000da1 9508      	RET
                 
                 __CWD2:
000da2 2f8b      	MOV  R24,R27
000da3 0f88      	ADD  R24,R24
000da4 0b88      	SBC  R24,R24
000da5 2f98      	MOV  R25,R24
000da6 9508      	RET
                 
                 __MULD12U:
000da7 9f7a      	MUL  R23,R26
000da8 2d70      	MOV  R23,R0
000da9 9f6b      	MUL  R22,R27
000daa 0d70      	ADD  R23,R0
000dab 9ff8      	MUL  R31,R24
000dac 0d70      	ADD  R23,R0
000dad 9fe9      	MUL  R30,R25
000dae 0d70      	ADD  R23,R0
000daf 9f6a      	MUL  R22,R26
000db0 2d60      	MOV  R22,R0
000db1 0d71      	ADD  R23,R1
000db2 9ffb      	MUL  R31,R27
000db3 0d60      	ADD  R22,R0
000db4 1d71      	ADC  R23,R1
000db5 9fe8      	MUL  R30,R24
000db6 0d60      	ADD  R22,R0
000db7 1d71      	ADC  R23,R1
000db8 2788      	CLR  R24
000db9 9ffa      	MUL  R31,R26
000dba 2df0      	MOV  R31,R0
000dbb 0d61      	ADD  R22,R1
000dbc 1f78      	ADC  R23,R24
000dbd 9feb      	MUL  R30,R27
000dbe 0df0      	ADD  R31,R0
000dbf 1d61      	ADC  R22,R1
000dc0 1f78      	ADC  R23,R24
000dc1 9fea      	MUL  R30,R26
000dc2 2de0      	MOV  R30,R0
000dc3 0df1      	ADD  R31,R1
000dc4 1f68      	ADC  R22,R24
000dc5 1f78      	ADC  R23,R24
000dc6 9508      	RET
                 
                 __MULD12:
000dc7 d058      	RCALL __CHKSIGND
000dc8 dfde      	RCALL __MULD12U
000dc9 f40e      	BRTC __MULD121
000dca df95      	RCALL __ANEGD1
                 __MULD121:
000dcb 9508      	RET
                 
                 __DIVW21U:
000dcc 2400      	CLR  R0
000dcd 2411      	CLR  R1
000dce e190      	LDI  R25,16
                 __DIVW21U1:
000dcf 0faa      	LSL  R26
000dd0 1fbb      	ROL  R27
000dd1 1c00      	ROL  R0
000dd2 1c11      	ROL  R1
000dd3 1a0e      	SUB  R0,R30
000dd4 0a1f      	SBC  R1,R31
000dd5 f418      	BRCC __DIVW21U2
000dd6 0e0e      	ADD  R0,R30
000dd7 1e1f      	ADC  R1,R31
000dd8 c001      	RJMP __DIVW21U3
                 __DIVW21U2:
000dd9 60a1      	SBR  R26,1
                 __DIVW21U3:
000dda 959a      	DEC  R25
000ddb f799      	BRNE __DIVW21U1
000ddc 01fd      	MOVW R30,R26
000ddd 01d0      	MOVW R26,R0
000dde 9508      	RET
                 
                 __DIVW21:
000ddf d032      	RCALL __CHKSIGNW
000de0 dfeb      	RCALL __DIVW21U
000de1 f40e      	BRTC __DIVW211
000de2 df79      	RCALL __ANEGW1
                 __DIVW211:
000de3 9508      	RET
                 
                 __DIVD21U:
000de4 933f      	PUSH R19
000de5 934f      	PUSH R20
000de6 935f      	PUSH R21
000de7 2400      	CLR  R0
000de8 2411      	CLR  R1
000de9 2744      	CLR  R20
000dea 2755      	CLR  R21
000deb e230      	LDI  R19,32
                 __DIVD21U1:
000dec 0faa      	LSL  R26
000ded 1fbb      	ROL  R27
000dee 1f88      	ROL  R24
000def 1f99      	ROL  R25
000df0 1c00      	ROL  R0
000df1 1c11      	ROL  R1
000df2 1f44      	ROL  R20
000df3 1f55      	ROL  R21
000df4 1a0e      	SUB  R0,R30
000df5 0a1f      	SBC  R1,R31
000df6 0b46      	SBC  R20,R22
000df7 0b57      	SBC  R21,R23
000df8 f428      	BRCC __DIVD21U2
000df9 0e0e      	ADD  R0,R30
000dfa 1e1f      	ADC  R1,R31
000dfb 1f46      	ADC  R20,R22
000dfc 1f57      	ADC  R21,R23
000dfd c001      	RJMP __DIVD21U3
                 __DIVD21U2:
000dfe 60a1      	SBR  R26,1
                 __DIVD21U3:
000dff 953a      	DEC  R19
000e00 f759      	BRNE __DIVD21U1
000e01 01fd      	MOVW R30,R26
000e02 01bc      	MOVW R22,R24
000e03 01d0      	MOVW R26,R0
000e04 01ca      	MOVW R24,R20
000e05 915f      	POP  R21
000e06 914f      	POP  R20
000e07 913f      	POP  R19
000e08 9508      	RET
                 
                 __DIVD21:
000e09 d016      	RCALL __CHKSIGND
000e0a dfd9      	RCALL __DIVD21U
000e0b f40e      	BRTC __DIVD211
000e0c df53      	RCALL __ANEGD1
                 __DIVD211:
000e0d 9508      	RET
                 
                 __MODD21U:
000e0e dfd5      	RCALL __DIVD21U
000e0f 01fd      	MOVW R30,R26
000e10 01bc      	MOVW R22,R24
000e11 9508      	RET
                 
                 __CHKSIGNW:
000e12 94e8      	CLT
000e13 fff7      	SBRS R31,7
000e14 c002      	RJMP __CHKSW1
000e15 df46      	RCALL __ANEGW1
000e16 9468      	SET
                 __CHKSW1:
000e17 ffb7      	SBRS R27,7
000e18 c006      	RJMP __CHKSW2
000e19 95a0      	COM  R26
000e1a 95b0      	COM  R27
000e1b 9611      	ADIW R26,1
000e1c f800      	BLD  R0,0
000e1d 9403      	INC  R0
000e1e fa00      	BST  R0,0
                 __CHKSW2:
000e1f 9508      	RET
                 
                 __CHKSIGND:
000e20 94e8      	CLT
000e21 ff77      	SBRS R23,7
000e22 c002      	RJMP __CHKSD1
000e23 df3c      	RCALL __ANEGD1
000e24 9468      	SET
                 __CHKSD1:
000e25 ff97      	SBRS R25,7
000e26 c00b      	RJMP __CHKSD2
000e27 2400      	CLR  R0
000e28 95a0      	COM  R26
000e29 95b0      	COM  R27
000e2a 9580      	COM  R24
000e2b 9590      	COM  R25
000e2c 9611      	ADIW R26,1
000e2d 1d80      	ADC  R24,R0
000e2e 1d90      	ADC  R25,R0
000e2f f800      	BLD  R0,0
000e30 9403      	INC  R0
000e31 fa00      	BST  R0,0
                 __CHKSD2:
000e32 9508      	RET
                 
                 __GETW1P:
000e33 91ed      	LD   R30,X+
000e34 91fc      	LD   R31,X
000e35 9711      	SBIW R26,1
000e36 9508      	RET
                 
                 __GETD1P:
000e37 91ed      	LD   R30,X+
000e38 91fd      	LD   R31,X+
000e39 916d      	LD   R22,X+
000e3a 917c      	LD   R23,X
000e3b 9713      	SBIW R26,3
000e3c 9508      	RET
                 
                 __PUTDP1:
000e3d 93ed      	ST   X+,R30
000e3e 93fd      	ST   X+,R31
000e3f 936d      	ST   X+,R22
000e40 937c      	ST   X,R23
000e41 9508      	RET
                 
                 __GETD1S0:
000e42 81e8      	LD   R30,Y
000e43 81f9      	LDD  R31,Y+1
000e44 816a      	LDD  R22,Y+2
000e45 817b      	LDD  R23,Y+3
000e46 9508      	RET
                 
                 __PUTD1S0:
000e47 83e8      	ST   Y,R30
000e48 83f9      	STD  Y+1,R31
000e49 836a      	STD  Y+2,R22
000e4a 837b      	STD  Y+3,R23
000e4b 9508      	RET
                 
                 __PUTPARD1:
000e4c 937a      	ST   -Y,R23
000e4d 936a      	ST   -Y,R22
000e4e 93fa      	ST   -Y,R31
000e4f 93ea      	ST   -Y,R30
000e50 9508      	RET
                 
                 __SWAPD12:
000e51 2e18      	MOV  R1,R24
000e52 2f86      	MOV  R24,R22
000e53 2d61      	MOV  R22,R1
000e54 2e19      	MOV  R1,R25
000e55 2f97      	MOV  R25,R23
000e56 2d71      	MOV  R23,R1
                 
                 __SWAPW12:
000e57 2e1b      	MOV  R1,R27
000e58 2fbf      	MOV  R27,R31
000e59 2df1      	MOV  R31,R1
                 
                 __SWAPB12:
000e5a 2e1a      	MOV  R1,R26
000e5b 2fae      	MOV  R26,R30
000e5c 2de1      	MOV  R30,R1
000e5d 9508      	RET
                 
                 __CPD10:
000e5e 9730      	SBIW R30,0
000e5f 4060      	SBCI R22,0
000e60 4070      	SBCI R23,0
000e61 9508      	RET
                 
                 __SAVELOCR6:
000e62 935a      	ST   -Y,R21
                 __SAVELOCR5:
000e63 934a      	ST   -Y,R20
                 __SAVELOCR4:
000e64 933a      	ST   -Y,R19
                 __SAVELOCR3:
000e65 932a      	ST   -Y,R18
                 __SAVELOCR2:
000e66 931a      	ST   -Y,R17
000e67 930a      	ST   -Y,R16
000e68 9508      	RET
                 
                 __LOADLOCR6:
000e69 815d      	LDD  R21,Y+5
                 __LOADLOCR5:
000e6a 814c      	LDD  R20,Y+4
                 __LOADLOCR4:
000e6b 813b      	LDD  R19,Y+3
                 __LOADLOCR3:
000e6c 812a      	LDD  R18,Y+2
                 __LOADLOCR2:
000e6d 8119      	LDD  R17,Y+1
000e6e 8108      	LD   R16,Y
000e6f 9508      	RET
                 
                 __LOADLOCR2P:
000e70 9109      	LD   R16,Y+
000e71 9119      	LD   R17,Y+
000e72 9508      	RET
                 
                 ;END OF CODE MARKER
                 __END_OF_CODE:


RESOURCE USE INFORMATION
------------------------

Notice:
The register and instruction counts are symbol table hit counts,
and hence implicitly used resources are not counted, eg, the
'lpm' instruction without operands implicitly uses r0 and z,
none of which are counted.

x,y,z are separate entities in the symbol table and are
counted separately from r26..r31 here.

.dseg memory usage only counts static data declared with .byte

ATmega8 register use summary:
r0 :  70 r1 :  46 r2 :  24 r3 :  13 r4 :   2 r5 :   0 r6 :   2 r7 :   0 
r8 :   2 r9 :   0 r10:   2 r11:   0 r12:   2 r13:   0 r14:   0 r15:   6 
r16:  53 r17:  97 r18:  54 r19:  36 r20:  47 r21:  91 r22: 154 r23: 142 
r24: 108 r25:  79 r26: 284 r27: 118 r28:  25 r29:   1 r30: 612 r31: 255 
x  :  28 y  : 266 z  :  13 
Registers used: 29 out of 35 (82.9%)

ATmega8 instruction use summary:
.lds  :   0 .lds.l:   0 .sts  :   0 .sts.l:   0 adc   :  38 add   :  31 
adiw  :  29 and   :   3 andi  :   9 asr   :   2 bclr  :   0 bld   :  25 
brbc  :   0 brbs  :   0 brcc  :   8 brcs  :   0 break :   0 breq  :  40 
brge  :   0 brhc  :   0 brhs  :   0 brid  :   0 brie  :   0 brlo  :  23 
brlt  :   2 brmi  :  10 brne  :  94 brpl  :   8 brsh  :   9 brtc  :   4 
brts  :   1 brvc  :   4 brvs  :   4 bset  :   0 bst   :   2 cbi   :  29 
cbr   :   2 clc   :   4 clh   :   0 cli   :   1 cln   :   0 clr   :  54 
cls   :   0 clt   :  14 clv   :   0 clz   :   2 com   :  14 cp    :  11 
cpc   :  31 cpi   : 103 cpse  :   0 dec   :  21 des   :   0 eor   :   7 
fmul  :   0 fmuls :   0 fmulsu:   0 icall :   2 ijmp  :   0 in    :  23 
inc   :   4 ld    :  51 ldd   : 118 ldi   : 389 lds   : 162 lpm   :  11 
lsl   :  19 lsr   :   3 mov   :  86 movw  :  49 mul   :  22 muls  :   0 
mulsu :   0 neg   :   4 nop   :   1 or    :   9 ori   :   8 out   :  55 
pop   :  42 push  :  42 rcall : 559 ret   : 149 reti  :   4 rjmp  : 231 
rol   :  41 ror   :  21 sbc   :  18 sbci  :  23 sbi   :  31 sbic  :   4 
sbis  :   8 sbiw  :  20 sbr   :   3 sbrc  :   6 sbrs  :  31 sec   :   5 
seh   :   0 sei   :   2 sen   :   0 ser   :   9 ses   :   0 set   :  11 
sev   :   0 sez   :   1 sleep :   1 spm   :   0 st    :  83 std   :  45 
sts   : 165 sub   :   8 subi  :  36 swap  :   1 tst   :  24 wdr   :   1 

Instructions used: 82 out of 114 (71.9%)

ATmega8 memory use summary [bytes]:
Segment   Begin    End      Code   Data   Used    Size   Use%
---------------------------------------------------------------
[.cseg] 0x000000 0x001ce6   7212    186   7398    8192  90.3%
[.dseg] 0x000060 0x000203      0    163    163    1119  14.6%
[.eseg] 0x000000 0x000000      0      0      0     512   0.0%

Assembly complete, 0 errors, 7 warnings
